((lp0
V!
p1
aV#
p2
aV$
p3
aV%
p4
aV&
p5
aV'
p6
aV''
p7
aV'd
p8
aV'll
p9
aV'm
p10
aV're
p11
aV's
p12
aV've
p13
aV(
p14
aV)
p15
aV,
p16
aV-
p17
aV--
p18
aV.
p19
aV...
p20
aV/
p21
aV0.01
p22
aV0.0343
p23
aV0.28
p24
aV0.4
p25
aV0.5
p26
aV0.7
p27
aV0.8
p28
aV0.9
p29
aV1
p30
aV1,000
p31
aV1,350,000
p32
aV1,450
p33
aV1.1
p34
aV1.2
p35
aV1.29
p36
aV1.3
p37
aV1.45
p38
aV1.5
p39
aV1.7
p40
aV1.8
p41
aV1.8740
p42
aV1/2
p43
aV10
p44
aV10,000
p45
aV10.05
p46
aV10.06.89
p47
aV10.4
p48
aV10.5
p49
aV100
p50
aV103
p51
aV11
p52
aV11,000
p53
aV11.28
p54
aV11.5
p55
aV11.9
p56
aV112,000
p57
aV12
p58
aV12.4
p59
aV12.6
p60
aV12/32
p61
aV120
p62
aV120,000
p63
aV129.25
p64
aV129.6
p65
aV129.87
p66
aV13
p67
aV13,433
p68
aV13.35
p69
aV13.8
p70
aV13th
p71
aV14
p72
aV140,000
p73
aV1406.29
p74
aV142.10
p75
aV145
p76
aV15
p77
aV15.92
p78
aV150
p79
aV155
p80
aV15th
p81
aV16
p82
aV160,510
p83
aV17
p84
aV17,500
p85
aV17th
p86
aV18
p87
aV18.819
p88
aV19
p89
aV190
p90
aV190.58
p91
aV1929
p92
aV193
p93
aV1960
p94
aV1960s
p95
aV1963
p96
aV1970s
p97
aV1973
p98
aV1976
p99
aV1979
p100
aV1980s
p101
aV1981
p102
aV1982
p103
aV1983
p104
aV1984
p105
aV1986
p106
aV1987
p107
aV1988
p108
aV1989
p109
aV1990
p110
aV1990s
p111
aV1992
p112
aV1994
p113
aV2
p114
aV2.07
p115
aV2.25
p116
aV2.3
p117
aV2.4
p118
aV2.5
p119
aV20
p120
aV20,000
p121
aV20.7
p122
aV20.71
p123
aV200
p124
aV200,000
p125
aV2000
p126
aV2002
p127
aV2004
p128
aV20th
p129
aV21.7
p130
aV210
p131
aV211.96
p132
aV23
p133
aV23,000
p134
aV23.3
p135
aV23.57
p136
aV24
p137
aV24.3
p138
aV25
p139
aV25.1
p140
aV25.7
p141
aV25/32
p142
aV250
p143
aV251,170,000
p144
aV2569.26
p145
aV26
p146
aV26.3
p147
aV27
p148
aV27/32
p149
aV270
p150
aV28.7
p151
aV29
p152
aV29.8
p153
aV2:07
p154
aV2:30
p155
aV2:45
p156
aV3
p157
aV3.2
p158
aV3.3
p159
aV3.4
p160
aV3.8
p161
aV3.87
p162
aV3/4
p163
aV30
p164
aV300
p165
aV31
p166
aV31.
p167
aV32
p168
aV330
p169
aV339
p170
aV34
p171
aV34,000
p172
aV340
p173
aV3421.29
p174
aV35
p175
aV35.2
p176
aV37
p177
aV37.6
p178
aV375
p179
aV38.2
p180
aV39
p181
aV4
p182
aV4.1
p183
aV4.3
p184
aV4.4
p185
aV4.5
p186
aV4.8
p187
aV40
p188
aV400
p189
aV400,000
p190
aV400th
p191
aV409
p192
aV41.4
p193
aV42
p194
aV42,000
p195
aV425
p196
aV428
p197
aV46
p198
aV47,000
p199
aV475
p200
aV48
p201
aV48,000
p202
aV5
p203
aV5,000
p204
aV5.4
p205
aV5.5
p206
aV5.8
p207
aV50
p208
aV50.5
p209
aV500
p210
aV508
p211
aV52.2
p212
aV540
p213
aV55
p214
aV55,000
p215
aV550
p216
aV56
p217
aV57
p218
aV589
p219
aV59
p220
aV6
p221
aV6.79
p222
aV60
p223
aV60.4
p224
aV61
p225
aV63
p226
aV650
p227
aV66
p228
aV7
p229
aV7.16
p230
aV7.29
p231
aV7.5
p232
aV7.6
p233
aV7.7
p234
aV7.82
p235
aV7/8
p236
aV70,000
p237
aV700,000
p238
aV734,000
p239
aV74.9
p240
aV75
p241
aV750
p242
aV76
p243
aV76,000
p244
aV77
p245
aV78.06
p246
aV79
p247
aV8
p248
aV8.734
p249
aV80
p250
aV800
p251
aV839
p252
aV85,000
p253
aV850,000
p254
aV86,555
p255
aV9
p256
aV9.28
p257
aV9.934
p258
aV90
p259
aV97
p260
aV98
p261
aV999
p262
aV:
p263
aV;
p264
aV?
p265
aVA
p266
aVA.
p267
aVABC
p268
aVAG
p269
aVAGF
p270
aVANC
p271
aVAbbett
p272
aVAbney
p273
aVAccording
p274
aVAccords
p275
aVAct
p276
aVActivity
p277
aVActually
p278
aVAdministration
p279
aVAdvisors
p280
aVAermacchi
p281
aVAeronautical
p282
aVAerospace
p283
aVAffairs
p284
aVAfrica
p285
aVAfrican
p286
aVAfricanist
p287
aVAfter
p288
aVAgency
p289
aVAges
p290
aVAh
p291
aVAides
p292
aVAir
p293
aVAircraft
p294
aVAirlines
p295
aVAirways
p296
aVAlan
p297
aVAlfred
p298
aVAll
p299
aVAllen
p300
aVAlso
p301
aVAlthough
p302
aVAltman
p303
aVAmerica
p304
aVAmerican
p305
aVAmericans
p306
aVAmong
p307
aVAn
p308
aVAnalysts
p309
aVAnd
p310
aVAndreas
p311
aVAndrew
p312
aVAngeles
p313
aVAnglican
p314
aVAnother
p315
aVAntonio
p316
aVAny
p317
aVApple
p318
aVApril
p319
aVAre
p320
aVArea
p321
aVArgentina
p322
aVArguing
p323
aVArizona
p324
aVArlington
p325
aVArmstrong
p326
aVAs
p327
aVAsia
p328
aVAside
p329
aVAspen
p330
aVAssistant
p331
aVAssociation
p332
aVAssuming
p333
aVAssurances
p334
aVAt
p335
aVAthens
p336
aVAtlantic
p337
aVAugust
p338
aVAustralia
p339
aVAustralian
p340
aVAustria
p341
aVAuthority
p342
aVAuto
p343
aVAverage
p344
aVAviation
p345
aVAvions
p346
aVAvmark
p347
aVAxa
p348
aVB.
p349
aVB.A.T
p350
aVBahamas
p351
aVBank
p352
aVBankAmerica
p353
aVBankers
p354
aVBanking
p355
aVBankruptcy
p356
aVBarbara
p357
aVBarnabas
p358
aVBaxley
p359
aVBeach
p360
aVBebear
p361
aVBecause
p362
aVBedminster
p363
aVBeech
p364
aVBeers
p365
aVBefore
p366
aVBeijing
p367
aVBelorussian
p368
aVBesides
p369
aVBeverly
p370
aVBeyond
p371
aVBig
p372
aVBill
p373
aVBlack
p374
aVBloc
p375
aVBloomingdales
p376
aVBoard
p377
aVBoeing
p378
aVBond
p379
aVBonds
p380
aVBonwit
p381
aVBooks
p382
aVBorten
p383
aVBoskin
p384
aVBoston
p385
aVBoth
p386
aVBourse
p387
aVBowery
p388
aVBox
p389
aVBoys
p390
aVBrady
p391
aVBreaking
p392
aVBreeden
p393
aVBreguet
p394
aVBridge
p395
aVBritain
p396
aVBritish
p397
aVBroadcast
p398
aVBroadcasting
p399
aVBrookings
p400
aVBrunswick
p401
aVBudapest
p402
aVBuddha
p403
aVBudget
p404
aVBueky
p405
aVBuilding
p406
aVBulgarian
p407
aVBumpers
p408
aVBurbank
p409
aVBureau
p410
aVBurnham
p411
aVBurt
p412
aVBush
p413
aVBusiness
p414
aVBusinesses
p415
aVBut
p416
aVBuying
p417
aVBy
p418
aVC.
p419
aVC.E.
p420
aVCBS
p421
aVCDT
p422
aVCFTC
p423
aVCPI
p424
aVCSF
p425
aVCadillac
p426
aVCalif
p427
aVCalif.
p428
aVCalifornia
p429
aVCamp
p430
aVCampeau
p431
aVCanada
p432
aVCanadian
p433
aVCandid
p434
aVCapetronic
p435
aVCapital
p436
aVCapitol
p437
aVCar
p438
aVCarleton
p439
aVCarpenter
p440
aVCarry
p441
aVCarter
p442
aVCassim
p443
aVCat
p444
aVCathedral
p445
aVCause
p446
aVCay
p447
aVCentral
p448
aVCentury
p449
aVCessna
p450
aVChairman
p451
aVChandross
p452
aVChapman
p453
aVChapter
p454
aVCharles
p455
aVCheck
p456
aVChevrolet
p457
aVChi
p458
aVChicago
p459
aVChief
p460
aVChina
p461
aVChinese
p462
aVChoice
p463
aVChris
p464
aVChristmas
p465
aVChristopher
p466
aVChrysler
p467
aVChurch
p468
aVCie
p469
aVCie.
p470
aVCiminero
p471
aVCircuit
p472
aVCiticorp
p473
aVCities
p474
aVCity
p475
aVClaiborne
p476
aVClaude
p477
aVClearly
p478
aVClose
p479
aVCo
p480
aVCo-operative
p481
aVCo.
p482
aVCoalition
p483
aVCode
p484
aVColeco
p485
aVColorado
p486
aVColumbia
p487
aVCombined
p488
aVComfort
p489
aVComment
p490
aVCommercial
p491
aVCommission
p492
aVCommittee
p493
aVCommodities
p494
aVCommodity
p495
aVCommon
p496
aVCommunications
p497
aVCommunist
p498
aVCommunity
p499
aVCompanies
p500
aVCompanion
p501
aVCompany
p502
aVCompelled
p503
aVComponents
p504
aVComputer
p505
aVCongratulations
p506
aVCongress
p507
aVCongressional
p508
aVCongressman
p509
aVConreid
p510
aVConsider
p511
aVConsolidated
p512
aVConstantine
p513
aVContinental
p514
aVConvention
p515
aVCorp
p516
aVCorp.
p517
aVCorporate
p518
aVCouncil
p519
aVCourt
p520
aVCranston
p521
aVCreate
p522
aVCredit
p523
aVCrete
p524
aVCrisanti
p525
aVCronkite
p526
aVCross
p527
aVCrucial
p528
aVCube
p529
aVD
p530
aVD.
p531
aVDJIA
p532
aVDLC
p533
aVDai
p534
aVDaily
p535
aVDale
p536
aVDallas
p537
aVDan
p538
aVDanny
p539
aVDark
p540
aVDarman
p541
aVDassault
p542
aVData
p543
aVDave
p544
aVDavid
p545
aVDay
p546
aVDe
p547
aVDeConcini
p548
aVDeafening
p549
aVDeak
p550
aVDealers
p551
aVDean
p552
aVDearborn
p553
aVDec.
p554
aVDecember
p555
aVDeclan
p556
aVDemocracy
p557
aVDemocrat
p558
aVDemocratic
p559
aVDemocrats
p560
aVDennis
p561
aVDenver
p562
aVDepartment
p563
aVDeposit
p564
aVDespite
p565
aVDetails
p566
aVDetroit
p567
aVDevotees
p568
aVDieppe
p569
aVDirector
p570
aVDismal
p571
aVDistrict
p572
aVDoctrine
p573
aVDodd
p574
aVDollar
p575
aVDomestic
p576
aVDomestically
p577
aVDonald
p578
aVDonaldsonville
p579
aVDorian
p580
aVDouglas
p581
aVDow
p582
aVDrexel
p583
aVDrug
p584
aVDubnow
p585
aVDuring
p586
aVDynamics
p587
aVE.
p588
aVEDT
p589
aVEST
p590
aVEYP
p591
aVEast
p592
aVEastern
p593
aVEconomists
p594
aVEdmund
p595
aVEdward
p596
aVElectric
p597
aVElectronic
p598
aVElements
p599
aVElias
p600
aVElite
p601
aVEmployees
p602
aVEmployment
p603
aVEmporium
p604
aVEncouragement
p605
aVEnd
p606
aVEndangered
p607
aVEnergy
p608
aVEnglund
p609
aVEntering
p610
aVEnterprises
p611
aVEntertainment
p612
aVEnthusiasts
p613
aVEquipment
p614
aVEquitable
p615
aVEslinger
p616
aVEspecially
p617
aVEstablish
p618
aVEthan
p619
aVEthics
p620
aVEuro
p621
aVEuropa
p622
aVEurope
p623
aVEuropean
p624
aVEvaluations
p625
aVEven
p626
aVEvening
p627
aVEvery
p628
aVExactly
p629
aVExchange
p630
aVExports
p631
aVExpress
p632
aVF
p633
aVF.W.
p634
aVFCC
p635
aVFalcon
p636
aVFarentino
p637
aVFarmers
p638
aVFed
p639
aVFederal
p640
aVFew
p641
aVFidelity
p642
aVFighting
p643
aVFin
p644
aVFinance
p645
aVFinancial
p646
aVFinanciere
p647
aVFirm
p648
aVFirst
p649
aVFla.
p650
aVFleet
p651
aVFollowing
p652
aVFood
p653
aVFor
p654
aVForce
p655
aVFord
p656
aVForeign
p657
aVFoster
p658
aVFour
p659
aVFrance
p660
aVFrankly
p661
aVFred
p662
aVFree
p663
aVFreeport
p664
aVFrench
p665
aVFrenchman
p666
aVFreres
p667
aVFriday
p668
aVFriedman
p669
aVFries
p670
aVFull
p671
aVFund
p672
aVFurthermore
p673
aVFutures
p674
aVG.
p675
aVG.m.b
p676
aVGDP
p677
aVGI
p678
aVGM
p679
aVGOP
p680
aVGa
p681
aVGa.
p682
aVGabor
p683
aVGains
p684
aVGallup
p685
aVGary
p686
aVGas
p687
aVGeneral
p688
aVGenerale
p689
aVGenerales
p690
aVGenerally
p691
aVGeorge
p692
aVGermany
p693
aVGeza
p694
aVGiant
p695
aVGinnie
p696
aVGive
p697
aVGlauber
p698
aVGlenn
p699
aVGlobal
p700
aVGoldman
p701
aVGoldsmith
p702
aVGood
p703
aVGovernment
p704
aVGrandparent
p705
aVGrant
p706
aVGreat
p707
aVGreece
p708
aVGreek
p709
aVGreeks
p710
aVGreenspan
p711
aVGroup
p712
aVGruber
p713
aVGuangdong
p714
aVGuber
p715
aVH
p716
aVH.
p717
aVHBO
p718
aVHK$
p719
aVHall
p720
aVHammond
p721
aVHans
p722
aVHarkins
p723
aVHe
p724
aVHealy
p725
aVHellenic
p726
aVHence
p727
aVHenry
p728
aVHill
p729
aVHills
p730
aVHis
p731
aVHodge
p732
aVHodgson
p733
aVHoldings
p734
aVHollywood
p735
aVHolston
p736
aVHoly
p737
aVHome
p738
aVHonda
p739
aVHong
p740
aVHooker
p741
aVHoover
p742
aVHot
p743
aVHouse
p744
aVHousing
p745
aVHouston
p746
aVHow
p747
aVHoward
p748
aVHowever
p749
aVHoylake
p750
aVHu
p751
aVHudson
p752
aVHungarian
p753
aVHungary
p754
aVHuntz
p755
aVHutton
p756
aVI
p757
aVI.
p758
aVII
p759
aVIIGS
p760
aVIII
p761
aVIIcx
p762
aVIchi
p763
aVIf
p764
aVIgnore
p765
aVIken
p766
aVIll
p767
aVIn
p768
aVInc
p769
aVInc.
p770
aVIndeed
p771
aVIndex
p772
aVIndianapolis
p773
aVIndonesia
p774
aVIndustrial
p775
aVIndustrials
p776
aVIndustries
p777
aVInstead
p778
aVInstitute
p779
aVInstitution
p780
aVInstruments
p781
aVInsurance
p782
aVIntegrated
p783
aVIntelligence
p784
aVInterest
p785
aVInternational
p786
aVIntroduced
p787
aVInvestcorp
p788
aVInvestigation
p789
aVInvestment
p790
aVInvestments
p791
aVInvestors
p792
aVIronically
p793
aVIrvine
p794
aVIs
p795
aVIt
p796
aVItaly
p797
aVIts
p798
aVJ.
p799
aVJ.B.
p800
aVJack
p801
aVJames
p802
aVJan.
p803
aVJanuary
p804
aVJapan
p805
aVJapanese
p806
aVJoanna
p807
aVJohn
p808
aVJohnson
p809
aVJon
p810
aVJones
p811
aVJournal
p812
aVJr.
p813
aVJudge
p814
aVJudging
p815
aVJuly
p816
aVJune
p817
aVJunk
p818
aVJustice
p819
aVJustin
p820
aVKLM
p821
aVKader
p822
aVKangyo
p823
aVKanska
p824
aVKaye
p825
aVKazakh
p826
aVKeating
p827
aVKelly
p828
aVKemper
p829
aVKennedy
p830
aVKenneth
p831
aVKing
p832
aVKirghiz
p833
aVKlerk
p834
aVKong
p835
aVKoskotas
p836
aVKremlin
p837
aVKwan
p838
aVKysor
p839
aVL.
p840
aVL.P.
p841
aVLa.
p842
aVLabor
p843
aVLambert
p844
aVLast
p845
aVLater
p846
aVLausanne
p847
aVLazard
p848
aVLeadership
p849
aVLearning
p850
aVLeasing
p851
aVLeft
p852
aVLehman
p853
aVLeinberger
p854
aVLeonard
p855
aVLet
p856
aVLevy
p857
aVLewis
p858
aVLexington
p859
aVLexus
p860
aVLiberal
p861
aVLiberty
p862
aVLight
p863
aVLike
p864
aVLilley
p865
aVLimited
p866
aVLin
p867
aVLincoln
p868
aVLines
p869
aVLittle
p870
aVLloyd
p871
aVLoan
p872
aVLockheed
p873
aVLomas
p874
aVLondon
p875
aVLongman
p876
aVLonski
p877
aVLook
p878
aVLord
p879
aVLos
p880
aVLowenstein
p881
aVLtd
p882
aVLtd.
p883
aVLusaka
p884
aVLutsenko
p885
aVLynch
p886
aVLyonnais
p887
aVLyons
p888
aVLyster
p889
aVMB
p890
aVMCA
p891
aVMGM
p892
aVMMI
p893
aVMMS
p894
aVMOVED
p895
aVMacintosh
p896
aVMade
p897
aVMae
p898
aVMaffei
p899
aVMajor
p900
aVMake
p901
aVMalaysia
p902
aVMandela
p903
aVManhattan
p904
aVManuel
p905
aVManufacturers
p906
aVMany
p907
aVMarcel
p908
aVMarch
p909
aVMaria
p910
aVMarietta
p911
aVMarket
p912
aVMarkets
p913
aVMarkey
p914
aVMartin
p915
aVMarysville
p916
aVMass.
p917
aVMatchbox
p918
aVMatsushita
p919
aVMattress
p920
aVMax
p921
aVMaxwell
p922
aVMay
p923
aVMcCain
p924
aVMcCarthy
p925
aVMcCurdy
p926
aVMcGraw
p927
aVMcLoughlin
p928
aVMcMoRan
p929
aVMcNamara
p930
aVMean
p931
aVMeantime
p932
aVMeanwhile
p933
aVMedical
p934
aVMerc
p935
aVMercantile
p936
aVMerrill
p937
aVMetropolitan
p938
aVMich
p939
aVMichael
p940
aVMichelle
p941
aVMichigan
p942
aVMickey
p943
aVMiddle
p944
aVMidi
p945
aVMikulski
p946
aVMilitary
p947
aVMind
p948
aVMinella
p949
aVMines
p950
aVMineworkers
p951
aVMinister
p952
aVMinistry
p953
aVMinnesota
p954
aVMirage
p955
aVMissouri
p956
aVMitsotakis
p957
aVMixte
p958
aVMlangeni
p959
aVMohammed
p960
aVMokaba
p961
aVMonastery
p962
aVMonday
p963
aVMonitor
p964
aVMonths
p965
aVMoody
p966
aVMoonlighting
p967
aVMoore
p968
aVMore
p969
aVMortgage
p970
aVMortimer
p971
aVMoscow
p972
aVMost
p973
aVMotion
p974
aVMotor
p975
aVMotors
p976
aVMotsoaledi
p977
aVMouse
p978
aVMr.
p979
aVMs.
p980
aVMulford
p981
aVMulhouse
p982
aVMullins
p983
aVMunich
p984
aVMunicipal
p985
aVMurdoch
p986
aVMutant
p987
aVMy
p988
aVN.J.
p989
aVNATO
p990
aVNAV:22.15
p991
aVNBC
p992
aVNYSE
p993
aVNagykanizsa
p994
aVNational
p995
aVNaturally
p996
aVNature
p997
aVNavigation
p998
aVNavy
p999
aVNedelya
p1000
aVNegotiations
p1001
aVNelson
p1002
aVNetwork
p1003
aVNevertheless
p1004
aVNew
p1005
aVNewport
p1006
aVNews
p1007
aVNewsreel
p1008
aVNewsstands
p1009
aVNewsweek
p1010
aVNext
p1011
aVNicholas
p1012
aVNika
p1013
aVNikolai
p1014
aVNinja
p1015
aVNintendo
p1016
aVNo.
p1017
aVNobody
p1018
aVNon-residential
p1019
aVNonetheless
p1020
aVNoonan
p1021
aVNorfolk
p1022
aVNorstar
p1023
aVNorth
p1024
aVNot
p1025
aVNov.
p1026
aVNovember
p1027
aVNow
p1028
aVNunn
p1029
aVNyiregyhaza
p1030
aVOFFICIALS
p1031
aVOK
p1032
aVOKing
p1033
aVOberstar
p1034
aVObserver
p1035
aVOct.
p1036
aVOctober
p1037
aVOf
p1038
aVOff
p1039
aVOffice
p1040
aVOhio
p1041
aVOkla.
p1042
aVOliver
p1043
aVOlympia
p1044
aVOn
p1045
aVOnce
p1046
aVOne
p1047
aVOnly
p1048
aVOpposed
p1049
aVOpposition
p1050
aVOr
p1051
aVOrthodox
p1052
aVOther
p1053
aVOur
p1054
aVOut
p1055
aVOver
p1056
aVOverall
p1057
aVOwn
p1058
aVPASOK
p1059
aVPLC
p1060
aVPPI
p1061
aVPact
p1062
aVPaid
p1063
aVPalestinian
p1064
aVPan
p1065
aVPanama
p1066
aVPapandreou
p1067
aVParamount
p1068
aVParibas
p1069
aVParis
p1070
aVParliament
p1071
aVPart
p1072
aVPartners
p1073
aVPartnership
p1074
aVParty
p1075
aVPaul
p1076
aVPell
p1077
aVPenniman
p1078
aVPentagon
p1079
aVPeople
p1080
aVPercentage
p1081
aVPerfecta
p1082
aVPerhaps
p1083
aVPet
p1084
aVPeter
p1085
aVPeters
p1086
aVPetrolane
p1087
aVPeugeot
p1088
aVPhiladelphia
p1089
aVPhilip
p1090
aVPhilippines
p1091
aVPhysicians
p1092
aVPicture
p1093
aVPictures
p1094
aVPlaymates
p1095
aVPlus
p1096
aVPo
p1097
aVPoints
p1098
aVPoland
p1099
aVPolicy
p1100
aVPoll
p1101
aVPolls
p1102
aVPoor
p1103
aVPorsche
p1104
aVPortugal
p1105
aVPost
p1106
aVPostal
p1107
aVPresident
p1108
aVPretoria
p1109
aVPrevious
p1110
aVPrices
p1111
aVPrime
p1112
aVPrivately
p1113
aVProducts
p1114
aVProgress
p1115
aVProposals
p1116
aVProspects
p1117
aVPublic
p1118
aVQintex
p1119
aVR.
p1120
aVRadio
p1121
aVRamirez
p1122
aVRand
p1123
aVRashid
p1124
aVRate
p1125
aVRather
p1126
aVRaymond
p1127
aVRaytheon
p1128
aVReaders
p1129
aVReagan
p1130
aVRecalls
p1131
aVRecognition
p1132
aVRecovery
p1133
aVRecreation
p1134
aVReedy
p1135
aVRehnquist
p1136
aVRep.
p1137
aVReplied
p1138
aVReport
p1139
aVRequire
p1140
aVResearch
p1141
aVReserve
p1142
aVResolution
p1143
aVResorts
p1144
aVResource
p1145
aVResources
p1146
aVRetired
p1147
aVReview
p1148
aVReynolds
p1149
aVRichard
p1150
aVRichardson
p1151
aVRiegle
p1152
aVRobert
p1153
aVRoe
p1154
aVRoger
p1155
aVRolf
p1156
aVRollin
p1157
aVRonald
p1158
aVRosenblatt
p1159
aVRostenkowski
p1160
aVRubik
p1161
aVRuby
p1162
aVRules
p1163
aVRupert
p1164
aVRussian
p1165
aVRustin
p1166
aVS&Ls
p1167
aVS&P
p1168
aVS.
p1169
aVS.A.
p1170
aVS.p
p1171
aVSE
p1172
aVSEC
p1173
aVSaatchi
p1174
aVSachs
p1175
aVSalem
p1176
aVSales
p1177
aVSaloojee
p1178
aVSam
p1179
aVSass
p1180
aVSavings
p1181
aVSavoca
p1182
aVSaxon
p1183
aVSays
p1184
aVSecretary
p1185
aVSecurities
p1186
aVSeeking
p1187
aVSen.
p1188
aVSenate
p1189
aVSenior
p1190
aVSens.
p1191
aVSeparately
p1192
aVSept.
p1193
aVSeptember
p1194
aVSequa
p1195
aVService
p1196
aVServices
p1197
aVSeveral
p1198
aVShane
p1199
aVShe
p1200
aVShearson
p1201
aVShing
p1202
aVShop
p1203
aVShort
p1204
aVShould
p1205
aVSidecar
p1206
aVSiemens
p1207
aVSik
p1208
aVSikes
p1209
aVSimilar
p1210
aVSimon
p1211
aVSimultaneously
p1212
aVSince
p1213
aVSir
p1214
aVSisulu
p1215
aVSix
p1216
aVSizwe
p1217
aVSkinner
p1218
aVSkokie
p1219
aVSmall
p1220
aVSo
p1221
aVSocialist
p1222
aVSociete
p1223
aVSolicitor
p1224
aVSome
p1225
aVSony
p1226
aVSouth
p1227
aVSoutheast
p1228
aVSouthern
p1229
aVSouthland
p1230
aVSouthmark
p1231
aVSoviet
p1232
aVSoweto
p1233
aVSpain
p1234
aVSpeaker
p1235
aVSpecies
p1236
aVSpecifically
p1237
aVSporkin
p1238
aVSports
p1239
aVSprings
p1240
aVSprizzo
p1241
aVStandard
p1242
aVStanford
p1243
aVStanley
p1244
aVStarr
p1245
aVState
p1246
aVStatements
p1247
aVStatistical
p1248
aVStatistics
p1249
aVSteven
p1250
aVStill
p1251
aVStock
p1252
aVStocks
p1253
aVStreet
p1254
aVStrictly
p1255
aVStriking
p1256
aVStudio
p1257
aVStudios
p1258
aVStunned
p1259
aVSuch
p1260
aVSugarman
p1261
aVSullivan
p1262
aVSunday
p1263
aVSunshine
p1264
aVSupreme
p1265
aVSurprisingly
p1266
aVSyndication
p1267
aVSystem
p1268
aVSystems
p1269
aVSzabad
p1270
aVSzanton
p1271
aVSzocs
p1272
aVT
p1273
aVT.
p1274
aVT34C
p1275
aVTV
p1276
aVTVA
p1277
aVTW
p1278
aVTaffner
p1279
aVTaiwan
p1280
aVTampa
p1281
aVTask
p1282
aVTechnical
p1283
aVTeenage
p1284
aVTelecommunications
p1285
aVTelevision
p1286
aVTeller
p1287
aVTennessee
p1288
aVTexas
p1289
aVThailand
p1290
aVThames
p1291
aVThat
p1292
aVThatcherian
p1293
aVThe
p1294
aVTheir
p1295
aVThen
p1296
aVThere
p1297
aVThese
p1298
aVThey
p1299
aVThings
p1300
aVThis
p1301
aVThomson
p1302
aVThose
p1303
aVThough
p1304
aVThree
p1305
aVThrough
p1306
aVThursday
p1307
aVThus
p1308
aVTime
p1309
aVTimes
p1310
aVTing
p1311
aVTo
p1312
aVToday
p1313
aVTokyo
p1314
aVTom
p1315
aVTommy
p1316
aVToo
p1317
aVTories
p1318
aVTotals
p1319
aVToy
p1320
aVToyota
p1321
aVToys
p1322
aVTrade
p1323
aVTraders
p1324
aVTrading
p1325
aVTransfer
p1326
aVTranslated
p1327
aVTransportation
p1328
aVTreasury
p1329
aVTreasurys
p1330
aVTrexler
p1331
aVTrinitron
p1332
aVTrinity
p1333
aVTrouble
p1334
aVTrust
p1335
aVTsuruo
p1336
aVTurned
p1337
aVTurner
p1338
aVTurtles
p1339
aVTwo
p1340
aVU.N.
p1341
aVU.S.
p1342
aVU.S.based
p1343
aVUA
p1344
aVUAL
p1345
aVUS$
p1346
aVUmkhonto
p1347
aVUncle
p1348
aVUnder
p1349
aVUnderclass
p1350
aVUndersecretary
p1351
aVUnify
p1352
aVUnion
p1353
aVUnited
p1354
aVUniversity
p1355
aVUnlimited
p1356
aVUranium
p1357
aVUspensky
p1358
aVVISTA
p1359
aVVa.
p1360
aVVacancy
p1361
aVValenti
p1362
aVValley
p1363
aVVarese
p1364
aVVarious
p1365
aVVice
p1366
aVViews
p1367
aVVisa
p1368
aVVoice
p1369
aVVolume
p1370
aVVolunteer
p1371
aVVoss
p1372
aVW.
p1373
aVWade
p1374
aVWah
p1375
aVWalkman
p1376
aVWall
p1377
aVWalter
p1378
aVWan
p1379
aVWar
p1380
aVWarner
p1381
aVWarsaw
p1382
aVWashington
p1383
aVWay
p1384
aVWe
p1385
aVWednesday
p1386
aVWeek
p1387
aVWell
p1388
aVWertheimer
p1389
aVWest
p1390
aVWestern
p1391
aVWhat
p1392
aVWhatever
p1393
aVWhen
p1394
aVWhere
p1395
aVWhile
p1396
aVWhite
p1397
aVWho
p1398
aVWhy
p1399
aVWide
p1400
aVWilber
p1401
aVWill
p1402
aVWilliam
p1403
aVWilson
p1404
aVWink
p1405
aVWith
p1406
aVWithout
p1407
aVWitter
p1408
aVWonder
p1409
aVWorking
p1410
aVWorks
p1411
aVWorld
p1412
aVWorlds
p1413
aVWorries
p1414
aVWorse
p1415
aVWould
p1416
aVWright
p1417
aVXerox
p1418
aVYES
p1419
aVYale
p1420
aVYamaguchi
p1421
aVYank
p1422
aVYeh
p1423
aVYes
p1424
aVYet
p1425
aVYork
p1426
aVYou
p1427
aVYoung
p1428
aVYouth
p1429
aVYuppily
p1430
aVZambia
p1431
aVZealand
p1432
aVZsa
p1433
aVZuckerman
p1434
aV`
p1435
aV``
p1436
aVa
p1437
aVa.m.
p1438
aVabandon
p1439
aVabating
p1440
aVability
p1441
aVable
p1442
aVaboard
p1443
aVabomination
p1444
aVabortion
p1445
aVabortions
p1446
aVabout
p1447
aVabove
p1448
aVabroad
p1449
aVabruptly
p1450
aVabsolute
p1451
aVabsolutely
p1452
aVabsorb
p1453
aVabsorbed
p1454
aVabstract
p1455
aVaccelerated
p1456
aVaccept
p1457
aVaccepting
p1458
aVaccess
p1459
aVaccompanied
p1460
aVaccord
p1461
aVaccording
p1462
aVaccount
p1463
aVaccounts
p1464
aVaccurate
p1465
aVaccused
p1466
aVaccuser
p1467
aVaccusers
p1468
aVaccusing
p1469
aVachieve
p1470
aVachieved
p1471
aVacknowledged
p1472
aVacquire
p1473
aVacquiring
p1474
aVacquisition
p1475
aVacross
p1476
aVact
p1477
aVacted
p1478
aVacting
p1479
aVaction
p1480
aVactions
p1481
aVactive
p1482
aVactivist
p1483
aVactivists
p1484
aVactivity
p1485
aVactor
p1486
aVactual
p1487
aVactually
p1488
aVad
p1489
aVadamant
p1490
aVadapted
p1491
aVadd
p1492
aVadded
p1493
aVadding
p1494
aVaddition
p1495
aVadditional
p1496
aVadditions
p1497
aVaddress
p1498
aVadds
p1499
aVadjusted
p1500
aVadjustment
p1501
aVadjustments
p1502
aVadministered
p1503
aVadministration
p1504
aVadmirable
p1505
aVadmired
p1506
aVadmit
p1507
aVadopt
p1508
aVadopted
p1509
aVadopting
p1510
aVads
p1511
aVadult
p1512
aVadults
p1513
aVadvances
p1514
aVadvantage
p1515
aVadvertisements
p1516
aVadvertising
p1517
aVadvisers
p1518
aVadvisory
p1519
aVadvocates
p1520
aVaffair
p1521
aVaffairs
p1522
aVaffect
p1523
aVaffected
p1524
aVaffiliates
p1525
aVaffinity
p1526
aVafflict
p1527
aVafloat
p1528
aVafter
p1529
aVaftermath
p1530
aVafternoon
p1531
aVagain
p1532
aVagainst
p1533
aVagencies
p1534
aVagency
p1535
aVagenda
p1536
aVagent
p1537
aVages
p1538
aVaggravate
p1539
aVaggressive
p1540
aVaging
p1541
aVagitation
p1542
aVago
p1543
aVagree
p1544
aVagreed
p1545
aVagreement
p1546
aVahead
p1547
aVaid
p1548
aVailing
p1549
aVaim
p1550
aVaimed
p1551
aVair
p1552
aVaircraft
p1553
aVaired
p1554
aVairline
p1555
aVairlines
p1556
aVairplanes
p1557
aVairport
p1558
aVairwaves
p1559
aValarming
p1560
aValike
p1561
aValive
p1562
aVall
p1563
aVallegation
p1564
aVallegations
p1565
aValleged
p1566
aValleging
p1567
aVallies
p1568
aVallow
p1569
aVallowed
p1570
aVallowing
p1571
aVallows
p1572
aValmost
p1573
aValone
p1574
aValong
p1575
aValready
p1576
aValso
p1577
aValter
p1578
aValtering
p1579
aValternative
p1580
aValthough
p1581
aVam
p1582
aVamazing
p1583
aVamend
p1584
aVamended
p1585
aVamid
p1586
aVamong
p1587
aVamount
p1588
aVamounted
p1589
aVamounts
p1590
aVample
p1591
aVan
p1592
aVanalysis
p1593
aVanalysts
p1594
aVanalyzed
p1595
aVand
p1596
aVanew
p1597
aVangry
p1598
aVanniversary
p1599
aVannounce
p1600
aVannounced
p1601
aVannouncement
p1602
aVannouncements
p1603
aVannual
p1604
aVannually
p1605
aVanomalies
p1606
aVanonymity
p1607
aVanother
p1608
aVanswered
p1609
aVanswers
p1610
aVantecedents
p1611
aVantelope
p1612
aVanti-airline
p1613
aVanti-apartheid
p1614
aVanti-government
p1615
aVanti-racketeering
p1616
aVanti-takeover
p1617
aVanticipate
p1618
aVanticipated
p1619
aVanticipating
p1620
aVanticipation
p1621
aVantique
p1622
aVanxiety
p1623
aVanxious
p1624
aVany
p1625
aVanything
p1626
aVanytime
p1627
aVanywhere
p1628
aVapartheid
p1629
aVapartments
p1630
aVapparently
p1631
aVappeal
p1632
aVappealing
p1633
aVappear
p1634
aVappearance
p1635
aVappeared
p1636
aVappears
p1637
aVappease
p1638
aVapplied
p1639
aVappointed
p1640
aVappropriate
p1641
aVapproval
p1642
aVapprove
p1643
aVapproximately
p1644
aVarchaic
p1645
aVare
p1646
aVarea
p1647
aVareas
p1648
aVarguably
p1649
aVargue
p1650
aVargued
p1651
aVargument
p1652
aVarguments
p1653
aVarise
p1654
aVarising
p1655
aVarm
p1656
aVarmed
p1657
aVarms
p1658
aVaroma
p1659
aVaround
p1660
aVarranged
p1661
aVarray
p1662
aVarrested
p1663
aVarticle
p1664
aVarticles
p1665
aVas
p1666
aVaside
p1667
aVask
p1668
aVasked
p1669
aVasking
p1670
aVaspersion
p1671
aVassault
p1672
aVassembled
p1673
aVassembly
p1674
aVassertions
p1675
aVasserts
p1676
aVasset
p1677
aVassets
p1678
aVassist
p1679
aVassistance
p1680
aVassisted
p1681
aVassisting
p1682
aVassociates
p1683
aVassociation
p1684
aVassociations
p1685
aVassorted
p1686
aVassume
p1687
aVassumption
p1688
aVassurances
p1689
aVat
p1690
aVatop
p1691
aVattached
p1692
aVattempt
p1693
aVattempted
p1694
aVattempting
p1695
aVattend
p1696
aVattention
p1697
aVattitude
p1698
aVattorney
p1699
aVattract
p1700
aVattributes
p1701
aVaudiences
p1702
aVaudio
p1703
aVauditors
p1704
aVausterity
p1705
aVauthority
p1706
aVauthorized
p1707
aVauto
p1708
aVautocratic
p1709
aVautomakers
p1710
aVautomatically
p1711
aVavailable
p1712
aVaverage
p1713
aVaviation
p1714
aVavoid
p1715
aVavoiding
p1716
aVawaited
p1717
aVawaits
p1718
aVaware
p1719
aVawash
p1720
aVaway
p1721
aVb
p1722
aVbaby
p1723
aVback
p1724
aVbacked
p1725
aVbackers
p1726
aVbackflips
p1727
aVbacking
p1728
aVbad
p1729
aVbailout
p1730
aVbalance
p1731
aVbalanced
p1732
aVban
p1733
aVbandwagon
p1734
aVbank
p1735
aVbanker
p1736
aVbankers
p1737
aVbanking
p1738
aVbankruptcy
p1739
aVbanks
p1740
aVbanner
p1741
aVbanning
p1742
aVbarely
p1743
aVbargained
p1744
aVbargains
p1745
aVbarnacles
p1746
aVbarracks
p1747
aVbarred
p1748
aVbarriers
p1749
aVbars
p1750
aVbase
p1751
aVbased
p1752
aVbases
p1753
aVbasic
p1754
aVbasis
p1755
aVbasket
p1756
aVbattered
p1757
aVbatteries
p1758
aVbattle
p1759
aVbe
p1760
aVbear
p1761
aVbearish
p1762
aVbears
p1763
aVbeat
p1764
aVbecame
p1765
aVbecause
p1766
aVbecome
p1767
aVbecomes
p1768
aVbecoming
p1769
aVbedpans
p1770
aVbeef
p1771
aVbeen
p1772
aVbeer
p1773
aVbefore
p1774
aVbegan
p1775
aVbegin
p1776
aVbeginning
p1777
aVbegins
p1778
aVbegun
p1779
aVbehalf
p1780
aVbehavior
p1781
aVbehaviors
p1782
aVbehest
p1783
aVbehind
p1784
aVbeing
p1785
aVbelatedly
p1786
aVbelief
p1787
aVbelieve
p1788
aVbelieved
p1789
aVbelieves
p1790
aVbelow
p1791
aVbeltway
p1792
aVbenchmark
p1793
aVbend
p1794
aVbeneath
p1795
aVbenefited
p1796
aVbenefits
p1797
aVbest
p1798
aVbetrayed
p1799
aVbetter
p1800
aVbetween
p1801
aVbeverage
p1802
aVbickered
p1803
aVbid
p1804
aVbidding
p1805
aVbids
p1806
aVbig
p1807
aVbigger
p1808
aVbiggest
p1809
aVbilateral
p1810
aVbill
p1811
aVbillings
p1812
aVbillion
p1813
aVbillions
p1814
aVbills
p1815
aVbinges
p1816
aVbiotechnology
p1817
aVbirth
p1818
aVbit
p1819
aVbitter
p1820
aVbitterly
p1821
aVblabs
p1822
aVblack
p1823
aVblacks
p1824
aVblame
p1825
aVblank
p1826
aVbleak
p1827
aVbleeding
p1828
aVblend
p1829
aVblock
p1830
aVblocked
p1831
aVblocking
p1832
aVblow
p1833
aVblue
p1834
aVboard
p1835
aVbody
p1836
aVbolder
p1837
aVbomb
p1838
aVbombing
p1839
aVbonanza
p1840
aVbond
p1841
aVbonds
p1842
aVbook
p1843
aVboom
p1844
aVborder
p1845
aVborders
p1846
aVbored
p1847
aVboring
p1848
aVborn
p1849
aVborrowed
p1850
aVborrowing
p1851
aVboth
p1852
aVbottle
p1853
aVbought
p1854
aVbounce
p1855
aVbout
p1856
aVboys
p1857
aVbrainchild
p1858
aVbrave
p1859
aVbreadth
p1860
aVbreak
p1861
aVbreakdown
p1862
aVbreaker
p1863
aVbreakers
p1864
aVbreaking
p1865
aVbreakthrough
p1866
aVbreather
p1867
aVbribed
p1868
aVbribes
p1869
aVbridging
p1870
aVbrief
p1871
aVbriefed
p1872
aVbright
p1873
aVbrightly
p1874
aVbringing
p1875
aVbrings
p1876
aVbroadcast
p1877
aVbroadcasting
p1878
aVbroadcasts
p1879
aVbroaden
p1880
aVbroke
p1881
aVbroken
p1882
aVbroker
p1883
aVbrokerage
p1884
aVbrokering
p1885
aVbroth
p1886
aVbrought
p1887
aVbubbling
p1888
aVbudge
p1889
aVbudged
p1890
aVbudget
p1891
aVbudgets
p1892
aVbuild
p1893
aVbuilding
p1894
aVbuildings
p1895
aVbuilds
p1896
aVbuilt
p1897
aVbull
p1898
aVbumble
p1899
aVbuoy
p1900
aVburden
p1901
aVbureau
p1902
aVburner
p1903
aVbusiness
p1904
aVbusinesses
p1905
aVbusinessman
p1906
aVbusy
p1907
aVbut
p1908
aVbuttons
p1909
aVbuttress
p1910
aVbuy
p1911
aVbuyer
p1912
aVbuyers
p1913
aVbuying
p1914
aVbuzzing
p1915
aVbuzzword
p1916
aVby
p1917
aVc
p1918
aVca
p1919
aVcabinet
p1920
aVcable
p1921
aVcalamity
p1922
aVcalculation
p1923
aVcalculations
p1924
aVcalendar
p1925
aVcall
p1926
aVcalled
p1927
aVcalling
p1928
aVcalls
p1929
aVcame
p1930
aVcampaign
p1931
aVcampaigns
p1932
aVcan
p1933
aVcanary
p1934
aVcanceled
p1935
aVcandidate
p1936
aVcans
p1937
aVcapacity
p1938
aVcapital
p1939
aVcapitalist
p1940
aVcapitalized
p1941
aVcaps
p1942
aVcar
p1943
aVcarcass
p1944
aVcard
p1945
aVcardiac
p1946
aVcards
p1947
aVcare
p1948
aVcareer
p1949
aVcareers
p1950
aVcarefully
p1951
aVcarried
p1952
aVcarrier
p1953
aVcarries
p1954
aVcars
p1955
aVcarve
p1956
aVcase
p1957
aVcases
p1958
aVcash
p1959
aVcassette
p1960
aVcast
p1961
aVcasting
p1962
aVcasualty
p1963
aVcatalyst
p1964
aVcatches
p1965
aVcatching
p1966
aVcategory
p1967
aVcatharsis
p1968
aVcaught
p1969
aVcause
p1970
aVcaused
p1971
aVcausing
p1972
aVcelebrate
p1973
aVcell
p1974
aVcement
p1975
aVcenter
p1976
aVcenters
p1977
aVcentimeter
p1978
aVcentral
p1979
aVcentrist
p1980
aVcents
p1981
aVcentury
p1982
aVcertain
p1983
aVcertainly
p1984
aVcessation
p1985
aVchain
p1986
aVchair
p1987
aVchairman
p1988
aVchairmen
p1989
aVchairs
p1990
aVchallenge
p1991
aVchallengeable
p1992
aVchance
p1993
aVchances
p1994
aVchange
p1995
aVchanged
p1996
aVchanges
p1997
aVchanging
p1998
aVchannel
p1999
aVchants
p2000
aVcharacter
p2001
aVcharacters
p2002
aVcharge
p2003
aVcharged
p2004
aVcharges
p2005
aVcharity
p2006
aVchastened
p2007
aVcheap
p2008
aVcheaper
p2009
aVcheaply
p2010
aVcheckpoints
p2011
aVchefs
p2012
aVchief
p2013
aVchildren
p2014
aVchip
p2015
aVchips
p2016
aVchoice
p2017
aVchose
p2018
aVchosen
p2019
aVchums
p2020
aVchunk
p2021
aVchurch
p2022
aVcircuit
p2023
aVcirculation
p2024
aVcircumstances
p2025
aVcircumstantial
p2026
aVcite
p2027
aVcited
p2028
aVcities
p2029
aVciting
p2030
aVcitizen
p2031
aVcitizens
p2032
aVcitizenship
p2033
aVcivic
p2034
aVcivil
p2035
aVclaims
p2036
aVclarity
p2037
aVclass
p2038
aVclasses
p2039
aVclassic
p2040
aVclean
p2041
aVcleaner
p2042
aVclear
p2043
aVclearing
p2044
aVclearly
p2045
aVclimate
p2046
aVclimbed
p2047
aVclinching
p2048
aVclinics
p2049
aVclock
p2050
aVclose
p2051
aVclosed
p2052
aVclosely
p2053
aVclosest
p2054
aVclosing
p2055
aVclothes
p2056
aVclout
p2057
aVco-author
p2058
aVco-head
p2059
aVco-sponsored
p2060
aVcoal
p2061
aVcoalition
p2062
aVcoercion
p2063
aVcoffers
p2064
aVcognoscenti
p2065
aVcoherence
p2066
aVcold
p2067
aVcollaborating
p2068
aVcollapse
p2069
aVcollapsed
p2070
aVcolleagues
p2071
aVcollection
p2072
aVcollectors
p2073
aVcollege
p2074
aVcolleges
p2075
aVcolony
p2076
aVcolor
p2077
aVcolored
p2078
aVcolorful
p2079
aVcolors
p2080
aVcombat
p2081
aVcombination
p2082
aVcombined
p2083
aVcome
p2084
aVcomedies
p2085
aVcomedy
p2086
aVcomes
p2087
aVcomforting
p2088
aVcomic
p2089
aVcoming
p2090
aVcommander
p2091
aVcomment
p2092
aVcommentary
p2093
aVcommercial
p2094
aVcommissioners
p2095
aVcommit
p2096
aVcommitment
p2097
aVcommitments
p2098
aVcommittee
p2099
aVcommodities
p2100
aVcommon
p2101
aVcommonly
p2102
aVcommunications
p2103
aVcommunist
p2104
aVcommunists
p2105
aVcommunity
p2106
aVcommuting
p2107
aVcompanies
p2108
aVcompany
p2109
aVcomparable
p2110
aVcomparably
p2111
aVcompared
p2112
aVcompelling
p2113
aVcompete
p2114
aVcompeting
p2115
aVcompetition
p2116
aVcompetitive
p2117
aVcompetitor
p2118
aVcomplain
p2119
aVcomplained
p2120
aVcomplaining
p2121
aVcomplete
p2122
aVcompleted
p2123
aVcompletely
p2124
aVcomplex
p2125
aVcomplicity
p2126
aVcompound
p2127
aVcompromise
p2128
aVcompromised
p2129
aVcompulsion
p2130
aVcompulsory
p2131
aVcomputer
p2132
aVcomputerized
p2133
aVcomputers
p2134
aVcomrades
p2135
aVconceded
p2136
aVconceived
p2137
aVconcentrated
p2138
aVconcept
p2139
aVconcern
p2140
aVconcerned
p2141
aVconcerning
p2142
aVconcert
p2143
aVconcessions
p2144
aVconcluded
p2145
aVconcluding
p2146
aVcondemning
p2147
aVcondition
p2148
aVconditions
p2149
aVconduct
p2150
aVconferees
p2151
aVconference
p2152
aVconferring
p2153
aVconfessed
p2154
aVconfidence
p2155
aVconfident
p2156
aVconform
p2157
aVconfusion
p2158
aVcongressional
p2159
aVconnected
p2160
aVconnector
p2161
aVconscious
p2162
aVconsecutive
p2163
aVconsensus
p2164
aVconsent
p2165
aVconservation
p2166
aVconservative
p2167
aVconservatives
p2168
aVconsider
p2169
aVconsiderable
p2170
aVconsidered
p2171
aVconsistent
p2172
aVconspicuously
p2173
aVconspiracy
p2174
aVconstantly
p2175
aVconstituent
p2176
aVconstitution
p2177
aVconstitutional
p2178
aVconstruction
p2179
aVconsultant
p2180
aVconsultations
p2181
aVconsulting
p2182
aVconsume
p2183
aVconsumer
p2184
aVconsumers
p2185
aVcontact
p2186
aVcontacted
p2187
aVcontacts
p2188
aVcontagious
p2189
aVcontain
p2190
aVcontains
p2191
aVcontended
p2192
aVcontends
p2193
aVcontent
p2194
aVcontext
p2195
aVcontinue
p2196
aVcontinued
p2197
aVcontinues
p2198
aVcontinuing
p2199
aVcontract
p2200
aVcontracts
p2201
aVcontrary
p2202
aVcontrast
p2203
aVcontrasts
p2204
aVcontribute
p2205
aVcontributed
p2206
aVcontributing
p2207
aVcontributions
p2208
aVcontrol
p2209
aVcontrolled
p2210
aVcontrols
p2211
aVcontroversial
p2212
aVconvenience
p2213
aVconvention
p2214
aVconversations
p2215
aVconverted
p2216
aVconvictions
p2217
aVconvincing
p2218
aVconvolutions
p2219
aVcooked
p2220
aVcooks
p2221
aVcooperate
p2222
aVcooperation
p2223
aVcooperatively
p2224
aVcopies
p2225
aVcore
p2226
aVcorners
p2227
aVcorporate
p2228
aVcorporates
p2229
aVcorporation
p2230
aVcorporations
p2231
aVcorps
p2232
aVcorrespondent
p2233
aVcorrespondents
p2234
aVcorruption
p2235
aVcost
p2236
aVcosting
p2237
aVcostly
p2238
aVcosts
p2239
aVcould
p2240
aVcouncils
p2241
aVcounsel
p2242
aVcount
p2243
aVcounted
p2244
aVcounter-cyclical
p2245
aVcounterparts
p2246
aVcounters
p2247
aVcounting
p2248
aVcountries
p2249
aVcountry
p2250
aVcountryside
p2251
aVcouple
p2252
aVcoupon
p2253
aVcourse
p2254
aVcourt
p2255
aVcourtrooms
p2256
aVcourts
p2257
aVcousin
p2258
aVcover
p2259
aVcovering
p2260
aVcpu
p2261
aVcracks
p2262
aVcraft
p2263
aVcrash
p2264
aVcreamed
p2265
aVcreate
p2266
aVcreated
p2267
aVcreating
p2268
aVcredibility
p2269
aVcredit
p2270
aVcreditor
p2271
aVcreditors
p2272
aVcrew
p2273
aVcrime
p2274
aVcriminal
p2275
aVcrises
p2276
aVcrisis
p2277
aVcritic
p2278
aVcritical
p2279
aVcriticism
p2280
aVcriticized
p2281
aVcross-market
p2282
aVcross-section
p2283
aVcrowd
p2284
aVcrowned
p2285
aVcrucial
p2286
aVcry
p2287
aVcuisine
p2288
aVcured
p2289
aVcuring
p2290
aVcurrent
p2291
aVcurrently
p2292
aVcurtailed
p2293
aVcurtains
p2294
aVcustomer
p2295
aVcustomers
p2296
aVcustoms
p2297
aVcut
p2298
aVcute
p2299
aVcuts
p2300
aVcycle
p2301
aVcycles
p2302
aVczars
p2303
aVd
p2304
aVdaily
p2305
aVdamage
p2306
aVdamages
p2307
aVdanger
p2308
aVdangerously
p2309
aVdapper
p2310
aVdata
p2311
aVday
p2312
aVdays
p2313
aVde
p2314
aVdeadlock
p2315
aVdeal
p2316
aVdealer
p2317
aVdealers
p2318
aVdealings
p2319
aVdeals
p2320
aVdebacle
p2321
aVdebate
p2322
aVdebates
p2323
aVdebilitating
p2324
aVdebt
p2325
aVdecade
p2326
aVdecades
p2327
aVdecent
p2328
aVdeceptive
p2329
aVdecide
p2330
aVdecided
p2331
aVdecision
p2332
aVdecisions
p2333
aVdecline
p2334
aVdeclined
p2335
aVdeclines
p2336
aVdeclining
p2337
aVdecrying
p2338
aVdeductions
p2339
aVdeep
p2340
aVdeeper
p2341
aVdeepest
p2342
aVdeeply
p2343
aVdefault
p2344
aVdefaulted
p2345
aVdefaults
p2346
aVdefeated
p2347
aVdefects
p2348
aVdefendants
p2349
aVdefense
p2350
aVdeferred
p2351
aVdeferring
p2352
aVdefiantly
p2353
aVdeficit
p2354
aVdefinitely
p2355
aVdefrauding
p2356
aVdelays
p2357
aVdeliveries
p2358
aVdelivering
p2359
aVdelivery
p2360
aVdemand
p2361
aVdemanded
p2362
aVdemonstration
p2363
aVdenied
p2364
aVdenies
p2365
aVdenounced
p2366
aVdeny
p2367
aVdepartment
p2368
aVdepartments
p2369
aVdepend
p2370
aVdependence
p2371
aVdependent
p2372
aVdepending
p2373
aVdepiction
p2374
aVdeposit
p2375
aVdepositors
p2376
aVdepress
p2377
aVdepressed
p2378
aVdepression
p2379
aVdepth
p2380
aVdeputy
p2381
aVderegulation
p2382
aVderivative
p2383
aVdeserted
p2384
aVdesigned
p2385
aVdesigner
p2386
aVdesirable
p2387
aVdesktop
p2388
aVdespite
p2389
aVdestructive
p2390
aVdetail
p2391
aVdetailed
p2392
aVdetails
p2393
aVdetective
p2394
aVdeterioration
p2395
aVdetermine
p2396
aVdeveloped
p2397
aVdeveloping
p2398
aVdevelopment
p2399
aVdevelopments
p2400
aVdevised
p2401
aVdevoid
p2402
aVdevoted
p2403
aVdevotees
p2404
aVdiagnostic
p2405
aVdialects
p2406
aVdiamond
p2407
aVdiaper
p2408
aVdid
p2409
aVdie
p2410
aVdiet
p2411
aVdiffer
p2412
aVdifference
p2413
aVdifferences
p2414
aVdifferent
p2415
aVdifficult
p2416
aVdifficulties
p2417
aVdigging
p2418
aVdiluted
p2419
aVdiminished
p2420
aVdipped
p2421
aVdirect
p2422
aVdirected
p2423
aVdirectly
p2424
aVdirector
p2425
aVdirectory
p2426
aVdisadvantage
p2427
aVdisaffected
p2428
aVdisappear
p2429
aVdisappeared
p2430
aVdisarmament
p2431
aVdisaster
p2432
aVdiscipline
p2433
aVdisciplined
p2434
aVdisclosed
p2435
aVdisclosure
p2436
aVdisclosures
p2437
aVdiscourse
p2438
aVdiscovered
p2439
aVdiscredit
p2440
aVdiscreetly
p2441
aVdiscuss
p2442
aVdiscussed
p2443
aVdiscussion
p2444
aVdiscussions
p2445
aVdisease
p2446
aVdish
p2447
aVdisillusionment
p2448
aVdisk
p2449
aVdismissed
p2450
aVdisplayed
p2451
aVdisposed
p2452
aVdispute
p2453
aVdisputed
p2454
aVdisrupted
p2455
aVdistinctive
p2456
aVdistinctly
p2457
aVdistracting
p2458
aVdistressed
p2459
aVdive
p2460
aVdiversified
p2461
aVdiversifying
p2462
aVdiverted
p2463
aVdivide
p2464
aVdivided
p2465
aVdividend
p2466
aVdividends
p2467
aVdivision
p2468
aVdivisions
p2469
aVdo
p2470
aVdoctors
p2471
aVdoes
p2472
aVdoing
p2473
aVdollar
p2474
aVdollars
p2475
aVdomestic
p2476
aVdomestically
p2477
aVdominance
p2478
aVdominated
p2479
aVdonated
p2480
aVdonations
p2481
aVdone
p2482
aVdoom
p2483
aVdoor
p2484
aVdoors
p2485
aVdouble
p2486
aVdoubtful
p2487
aVdoubts
p2488
aVdown
p2489
aVdowngrades
p2490
aVdownturn
p2491
aVdozens
p2492
aVdrachmas
p2493
aVdraft
p2494
aVdragged
p2495
aVdrain
p2496
aVdraw
p2497
aVdress
p2498
aVdried
p2499
aVdrilled
p2500
aVdrive
p2501
aVdriven
p2502
aVdrives
p2503
aVdriving
p2504
aVdrop
p2505
aVdropped
p2506
aVdropping
p2507
aVdrops
p2508
aVdrugstore
p2509
aVdrumbeat
p2510
aVdue
p2511
aVdues
p2512
aVdump
p2513
aVdumps
p2514
aVdune
p2515
aVdupes
p2516
aVduplicate
p2517
aVduring
p2518
aVduty
p2519
aVdwarf
p2520
aVe
p2521
aVeach
p2522
aVeager
p2523
aVearlier
p2524
aVearly
p2525
aVearned
p2526
aVearnings
p2527
aVease
p2528
aVeasier
p2529
aVeasily
p2530
aVeasing
p2531
aVeast
p2532
aVeastern
p2533
aVeasy
p2534
aVeccentric
p2535
aVechoing
p2536
aVeconomic
p2537
aVeconomically
p2538
aVeconomies
p2539
aVeconomist
p2540
aVeconomists
p2541
aVeconomy
p2542
aVeditor
p2543
aVeditorial
p2544
aVeducation
p2545
aVeducational
p2546
aVeerie
p2547
aVeffect
p2548
aVeffectively
p2549
aVeffects
p2550
aVeffort
p2551
aVefforts
p2552
aVeggs
p2553
aVeight
p2554
aVeither
p2555
aVelaborate
p2556
aVelders
p2557
aVelection
p2558
aVelections
p2559
aVelectricity
p2560
aVelectro
p2561
aVelectronic
p2562
aVelectronics
p2563
aVeliminate
p2564
aVeliminated
p2565
aVelse
p2566
aVeluding
p2567
aVembezzler
p2568
aVemerged
p2569
aVemergency
p2570
aVemotion
p2571
aVemphasize
p2572
aVempire
p2573
aVemployed
p2574
aVemployee
p2575
aVemployees
p2576
aVemployers
p2577
aVemploying
p2578
aVemployment
p2579
aVempty
p2580
aVemptying
p2581
aVenact
p2582
aVencircling
p2583
aVencourage
p2584
aVencouraged
p2585
aVencouragement
p2586
aVencourages
p2587
aVend
p2588
aVendangered
p2589
aVended
p2590
aVending
p2591
aVendless
p2592
aVendorsed
p2593
aVendow
p2594
aVenemy
p2595
aVenergy
p2596
aVenforcement
p2597
aVengine
p2598
aVengines
p2599
aVengorgement
p2600
aVenjoy
p2601
aVenlarged
p2602
aVenormous
p2603
aVenough
p2604
aVenrolled
p2605
aVenrollees
p2606
aVentangled
p2607
aVenter
p2608
aVentered
p2609
aVenterprise
p2610
aVenterprises
p2611
aVenthusiastic
p2612
aVenticed
p2613
aVentirely
p2614
aVenvironment
p2615
aVenvisaged
p2616
aVepisode
p2617
aVepisodes
p2618
aVequal
p2619
aVequaling
p2620
aVequipment
p2621
aVequipped
p2622
aVequities
p2623
aVequity
p2624
aVequivalent
p2625
aVera
p2626
aVerratic
p2627
aVespecially
p2628
aVessence
p2629
aVestablished
p2630
aVestablishing
p2631
aVestablishment
p2632
aVestate
p2633
aVestimate
p2634
aVestimated
p2635
aVestimates
p2636
aVethics
p2637
aVevaluate
p2638
aVevaluated
p2639
aVeven
p2640
aVevening
p2641
aVevent
p2642
aVevents
p2643
aVeventually
p2644
aVever
p2645
aVevery
p2646
aVeverybody
p2647
aVeveryone
p2648
aVeverything
p2649
aVevidence
p2650
aVevident
p2651
aVevil
p2652
aVevokes
p2653
aVex
p2654
aVex-member
p2655
aVexacerbate
p2656
aVexact
p2657
aVexactly
p2658
aVexamine
p2659
aVexample
p2660
aVexceed
p2661
aVexcept
p2662
aVexcess
p2663
aVexchange
p2664
aVexchanges
p2665
aVexcite
p2666
aVexcludes
p2667
aVexclusively
p2668
aVexecute
p2669
aVexecutive
p2670
aVexecutives
p2671
aVexempt
p2672
aVexert
p2673
aVexhausted
p2674
aVexhibit
p2675
aVexhort
p2676
aVexistance
p2677
aVexistence
p2678
aVexisting
p2679
aVexists
p2680
aVexonerated
p2681
aVexorbitant
p2682
aVexotic
p2683
aVexpand
p2684
aVexpanding
p2685
aVexpansionism
p2686
aVexpect
p2687
aVexpectations
p2688
aVexpected
p2689
aVexpecting
p2690
aVexpects
p2691
aVexpenditures
p2692
aVexpense
p2693
aVexpenses
p2694
aVexpensive
p2695
aVexperience
p2696
aVexperienced
p2697
aVexpertise
p2698
aVexperts
p2699
aVexpired
p2700
aVexplanation
p2701
aVexplicitly
p2702
aVexplodes
p2703
aVexplosion
p2704
aVexport
p2705
aVexports
p2706
aVexpressed
p2707
aVextended
p2708
aVextension
p2709
aVextensive
p2710
aVextent
p2711
aVexternal
p2712
aVextradition
p2713
aVeyed
p2714
aVeying
p2715
aVf
p2716
aVface
p2717
aVfaced
p2718
aVfaces
p2719
aVfacilities
p2720
aVfacility
p2721
aVfacing
p2722
aVfact
p2723
aVfacto
p2724
aVfactor
p2725
aVfactories
p2726
aVfactory
p2727
aVfade
p2728
aVfailed
p2729
aVfails
p2730
aVfair
p2731
aVfairly
p2732
aVfairs
p2733
aVfall
p2734
aVfallen
p2735
aVfaltering
p2736
aVfalters
p2737
aVfamilies
p2738
aVfamily
p2739
aVfamous
p2740
aVfar
p2741
aVfares
p2742
aVfarming
p2743
aVfast
p2744
aVfaster
p2745
aVfastest
p2746
aVfather
p2747
aVfavor
p2748
aVfear
p2749
aVfeared
p2750
aVfeaturing
p2751
aVfederal
p2752
aVfederally
p2753
aVfee
p2754
aVfeel
p2755
aVfeeling
p2756
aVfeels
p2757
aVfees
p2758
aVfell
p2759
aVfellow
p2760
aVfend
p2761
aVfending
p2762
aVfew
p2763
aVfiasco
p2764
aVfictional
p2765
aVfifth
p2766
aVfight
p2767
aVfighting
p2768
aVfigure
p2769
aVfigured
p2770
aVfigures
p2771
aVfiguring
p2772
aVfile
p2773
aVfiled
p2774
aVfiling
p2775
aVfilings
p2776
aVfilms
p2777
aVfin
p2778
aVfinal
p2779
aVfinally
p2780
aVfinance
p2781
aVfinanced
p2782
aVfinancial
p2783
aVfinancially
p2784
aVfinancing
p2785
aVfinancings
p2786
aVfind
p2787
aVfine
p2788
aVfined
p2789
aVfinger
p2790
aVfingers
p2791
aVfire
p2792
aVfired
p2793
aVfires
p2794
aVfirm
p2795
aVfirms
p2796
aVfirst
p2797
aVfiscal
p2798
aVfists
p2799
aVfive
p2800
aVfixed
p2801
aVflag
p2802
aVflags
p2803
aVflamboyant
p2804
aVflare
p2805
aVflat
p2806
aVflatness
p2807
aVflatten
p2808
aVflattening
p2809
aVfled
p2810
aVfledging
p2811
aVfleet
p2812
aVflew
p2813
aVflexibility
p2814
aVflies
p2815
aVflight
p2816
aVflog
p2817
aVfloor
p2818
aVflow
p2819
aVfly
p2820
aVflying
p2821
aVfocus
p2822
aVfocused
p2823
aVfocuses
p2824
aVfocusing
p2825
aVfogged
p2826
aVfoil
p2827
aVfoiled
p2828
aVfollow
p2829
aVfollowed
p2830
aVfollowers
p2831
aVfollowing
p2832
aVfollows
p2833
aVfood
p2834
aVfoods
p2835
aVfoot
p2836
aVfor
p2837
aVforce
p2838
aVforced
p2839
aVforceful
p2840
aVforecast
p2841
aVforecasts
p2842
aVforeign
p2843
aVforest
p2844
aVforever
p2845
aVforgetting
p2846
aVforgotten
p2847
aVform
p2848
aVformally
p2849
aVformat
p2850
aVformed
p2851
aVformer
p2852
aVformula
p2853
aVforthright
p2854
aVfortunes
p2855
aVforward
p2856
aVfought
p2857
aVfound
p2858
aVfoundation
p2859
aVfounded
p2860
aVfounding
p2861
aVfour
p2862
aVfourth
p2863
aVfraction
p2864
aVfrancs
p2865
aVfrantically
p2866
aVfraud
p2867
aVfree
p2868
aVfreed
p2869
aVfreedom
p2870
aVfreeing
p2871
aVfreely
p2872
aVfreeze
p2873
aVfreezes
p2874
aVfrequencies
p2875
aVfrequency
p2876
aVfrequent
p2877
aVfrequently
p2878
aVfriend
p2879
aVfriends
p2880
aVfriendship
p2881
aVfrigate
p2882
aVfrom
p2883
aVfront
p2884
aVfronts
p2885
aVfrozen
p2886
aVfrustrating
p2887
aVfrustration
p2888
aVfulfilling
p2889
aVfull
p2890
aVfully
p2891
aVfund
p2892
aVfundamental
p2893
aVfunded
p2894
aVfunding
p2895
aVfunds
p2896
aVfunneled
p2897
aVfurnished
p2898
aVfurniture
p2899
aVfurther
p2900
aVfusillade
p2901
aVfutile
p2902
aVfuture
p2903
aVfutures
p2904
aVg
p2905
aVgain
p2906
aVgained
p2907
aVgaining
p2908
aVgains
p2909
aVgambling
p2910
aVgame
p2911
aVgames
p2912
aVgap
p2913
aVgarbage
p2914
aVgarnered
p2915
aVgate
p2916
aVgather
p2917
aVgathered
p2918
aVgave
p2919
aVgearing
p2920
aVgeneral
p2921
aVgeneralized
p2922
aVgenerally
p2923
aVgenerated
p2924
aVgenerating
p2925
aVgeneration
p2926
aVgenius
p2927
aVgenuine
p2928
aVget
p2929
aVgets
p2930
aVgetting
p2931
aVgifts
p2932
aVgirl
p2933
aVgist
p2934
aVgive
p2935
aVgiven
p2936
aVgives
p2937
aVgiving
p2938
aVglamour
p2939
aVglaringly
p2940
aVglasnost
p2941
aVglobe
p2942
aVglop
p2943
aVgo
p2944
aVgoal
p2945
aVgoing
p2946
aVgold
p2947
aVgone
p2948
aVgood
p2949
aVgoods
p2950
aVgospel
p2951
aVgossip
p2952
aVgossipy
p2953
aVgot
p2954
aVgovern
p2955
aVgoverning
p2956
aVgovernment
p2957
aVgovernments
p2958
aVgovernor
p2959
aVgovernors
p2960
aVgrabbing
p2961
aVgrade
p2962
aVgradually
p2963
aVgraduates
p2964
aVgraduation
p2965
aVgrand
p2966
aVgrant
p2967
aVgrants
p2968
aVgrass
p2969
aVgratuities
p2970
aVgray
p2971
aVgraying
p2972
aVgreat
p2973
aVgreater
p2974
aVgreen
p2975
aVgrew
p2976
aVgridlock
p2977
aVgrim
p2978
aVgrind
p2979
aVgross
p2980
aVgrossly
p2981
aVground
p2982
aVgroup
p2983
aVgroups
p2984
aVgrow
p2985
aVgrowing
p2986
aVgrown
p2987
aVgrowth
p2988
aVguard
p2989
aVguarded
p2990
aVguided
p2991
aVguilty
p2992
aVhackles
p2993
aVhad
p2994
aVhagglings
p2995
aVhair
p2996
aVhalf
p2997
aVhalt
p2998
aVhalted
p2999
aVhalting
p3000
aVhalts
p3001
aVhammer
p3002
aVhammered
p3003
aVhamper
p3004
aVhamstring
p3005
aVhand
p3006
aVhandle
p3007
aVhands
p3008
aVhang
p3009
aVhappen
p3010
aVhappened
p3011
aVhappenings
p3012
aVhappy
p3013
aVhard
p3014
aVharder
p3015
aVhardest
p3016
aVharnessing
p3017
aVharshest
p3018
aVhas
p3019
aVhave
p3020
aVhaving
p3021
aVhe
p3022
aVhead
p3023
aVheaded
p3024
aVheadquarters
p3025
aVheads
p3026
aVhealth
p3027
aVhealthy
p3028
aVhear
p3029
aVhears
p3030
aVheavily
p3031
aVheavy
p3032
aVhectic
p3033
aVhefty
p3034
aVheightened
p3035
aVheld
p3036
aVhell
p3037
aVhelp
p3038
aVhelped
p3039
aVher
p3040
aVherald
p3041
aVherd
p3042
aVhere
p3043
aVhidden
p3044
aVhigh
p3045
aVhigher
p3046
aVhighest
p3047
aVhighly
p3048
aVhill
p3049
aVhim
p3050
aVhimself
p3051
aVhire
p3052
aVhired
p3053
aVhis
p3054
aVhistorical
p3055
aVhit
p3056
aVhitch
p3057
aVhoisted
p3058
aVhold
p3059
aVholders
p3060
aVholding
p3061
aVholdings
p3062
aVholiday
p3063
aVhome
p3064
aVhomes
p3065
aVhonor
p3066
aVhope
p3067
aVhoped
p3068
aVhopeful
p3069
aVhopes
p3070
aVhoping
p3071
aVhorn
p3072
aVhospitable
p3073
aVhospitals
p3074
aVhost
p3075
aVhostile
p3076
aVhot
p3077
aVhotel
p3078
aVhour
p3079
aVhours
p3080
aVhouse
p3081
aVhouses
p3082
aVhousing
p3083
aVhow
p3084
aVhowever
p3085
aVhuge
p3086
aVhuman
p3087
aVhundred
p3088
aVhundreds
p3089
aVhung
p3090
aVhunt
p3091
aVhurries
p3092
aVhurt
p3093
aVhype
p3094
aVhysteria
p3095
aVidea
p3096
aVideal
p3097
aVidealistic
p3098
aVidentical
p3099
aVidentified
p3100
aVideological
p3101
aVideology
p3102
aVif
p3103
aVignition
p3104
aVill
p3105
aVillegal
p3106
aVillegally
p3107
aVillegitimate
p3108
aVillustrate
p3109
aVillustrated
p3110
aVimagination
p3111
aVimaging
p3112
aVimbalances
p3113
aVimmediate
p3114
aVimmediately
p3115
aVimmigration
p3116
aVimpact
p3117
aVimpacted
p3118
aVimperialism
p3119
aVimperialists
p3120
aVimplemented
p3121
aVimplicated
p3122
aVimplications
p3123
aVimplies
p3124
aVimport
p3125
aVimportance
p3126
aVimportant
p3127
aVimported
p3128
aVimports
p3129
aVimposed
p3130
aVimposing
p3131
aVimpossible
p3132
aVimprisonment
p3133
aVimprobable
p3134
aVimproper
p3135
aVimprove
p3136
aVimproved
p3137
aVimprovement
p3138
aVimproves
p3139
aVimproving
p3140
aVin
p3141
aVinability
p3142
aVinaccurate
p3143
aVincentive
p3144
aVincentives
p3145
aVinched
p3146
aVinclude
p3147
aVincluded
p3148
aVincluding
p3149
aVincome
p3150
aVinconsiderable
p3151
aVincorporated
p3152
aVincorrect
p3153
aVincrease
p3154
aVincreased
p3155
aVincreases
p3156
aVincreasing
p3157
aVincreasingly
p3158
aVincurred
p3159
aVincurring
p3160
aVindeed
p3161
aVindependent
p3162
aVindex
p3163
aVindexes
p3164
aVindication
p3165
aVindications
p3166
aVindicative
p3167
aVindicators
p3168
aVindicted
p3169
aVindividual
p3170
aVindividuals
p3171
aVindustrial
p3172
aVindustrialists
p3173
aVindustrialization
p3174
aVindustrials
p3175
aVindustries
p3176
aVindustry
p3177
aVineptitude
p3178
aVinequities
p3179
aVinfecting
p3180
aVinfiltrated
p3181
aVinflates
p3182
aVinflation
p3183
aVinfluence
p3184
aVinfluenced
p3185
aVinfluencing
p3186
aVinfluenza
p3187
aVinflux
p3188
aVinform
p3189
aVinformation
p3190
aVinformed
p3191
aVinfrastructure
p3192
aVinfringement
p3193
aVingredients
p3194
aVinitial
p3195
aVinitially
p3196
aVinitiative
p3197
aVinject
p3198
aVinjection
p3199
aVinnocent
p3200
aVinnocently
p3201
aVinnovative
p3202
aVinquiry
p3203
aVinside
p3204
aVinsider
p3205
aVinsisted
p3206
aVinsisting
p3207
aVinsists
p3208
aVinsolvency
p3209
aVinsolvent
p3210
aVinspired
p3211
aVinstall
p3212
aVinstance
p3213
aVinstead
p3214
aVinstinct
p3215
aVinstinctive
p3216
aVinstitute
p3217
aVinstitutions
p3218
aVinstructed
p3219
aVinstruments
p3220
aVinsurance
p3221
aVinsured
p3222
aVinsurer
p3223
aVintegration
p3224
aVintellectual
p3225
aVintelligence
p3226
aVintend
p3227
aVintended
p3228
aVintense
p3229
aVintensifying
p3230
aVinterceded
p3231
aVinterest
p3232
aVinterested
p3233
aVinteresting
p3234
aVinterests
p3235
aVinterim
p3236
aVinternal
p3237
aVinternational
p3238
aVinterrupting
p3239
aVinterruption
p3240
aVintersperses
p3241
aVintervened
p3242
aVinterventionists
p3243
aVinterview
p3244
aVinterviewed
p3245
aVinterviewing
p3246
aVintimidation
p3247
aVinto
p3248
aVintroduced
p3249
aVinvade
p3250
aVinvest
p3251
aVinvestigate
p3252
aVinvestigated
p3253
aVinvestigation
p3254
aVinvestment
p3255
aVinvestments
p3256
aVinvestor
p3257
aVinvestors
p3258
aVinvolve
p3259
aVinvolved
p3260
aVinvolvement
p3261
aVinvolves
p3262
aVinvolving
p3263
aViota
p3264
aVirony
p3265
aVirregular
p3266
aVis
p3267
aVissue
p3268
aVissued
p3269
aVissuer
p3270
aVissues
p3271
aVit
p3272
aVits
p3273
aVitself
p3274
aVjail
p3275
aVjailed
p3276
aVjammed
p3277
aVjamming
p3278
aVjet
p3279
aVjinks
p3280
aVjitters
p3281
aVjittery
p3282
aVjob
p3283
aVjobs
p3284
aVjoin
p3285
aVjoining
p3286
aVjoint
p3287
aVjolt
p3288
aVjournalists
p3289
aVjudge
p3290
aVjuice
p3291
aVjump
p3292
aVjumped
p3293
aVjunior
p3294
aVjunk
p3295
aVjurisdiction
p3296
aVjust
p3297
aVjustice
p3298
aVjustices
p3299
aVjustification
p3300
aVjustify
p3301
aVkeep
p3302
aVkeeping
p3303
aVkelp
p3304
aVkept
p3305
aVkettle
p3306
aVkey
p3307
aVkick
p3308
aVkickbacks
p3309
aVkicked
p3310
aVkids
p3311
aVkilled
p3312
aVkilling
p3313
aVkind
p3314
aVkinds
p3315
aVknee
p3316
aVknit
p3317
aVknocked
p3318
aVknow
p3319
aVknowledge
p3320
aVknowledgeable
p3321
aVknown
p3322
aVla
p3323
aVlabel
p3324
aVlabor
p3325
aVlaboratory
p3326
aVlack
p3327
aVlacks
p3328
aVladies
p3329
aVlagged
p3330
aVlags
p3331
aVlaid
p3332
aVlament
p3333
aVlaminated
p3334
aVlance
p3335
aVland
p3336
aVlands
p3337
aVlapses
p3338
aVlarge
p3339
aVlargely
p3340
aVlarger
p3341
aVlargest
p3342
aVlash
p3343
aVlast
p3344
aVlate
p3345
aVlater
p3346
aVlatest
p3347
aVlaunch
p3348
aVlaunched
p3349
aVlaunches
p3350
aVlaundromat
p3351
aVlavishly
p3352
aVlaw
p3353
aVlawmakers
p3354
aVlaws
p3355
aVlawsuit
p3356
aVlawyer
p3357
aVlead
p3358
aVleader
p3359
aVleaders
p3360
aVleadership
p3361
aVleading
p3362
aVleads
p3363
aVleague
p3364
aVlearn
p3365
aVlease
p3366
aVleases
p3367
aVleasing
p3368
aVleast
p3369
aVleave
p3370
aVleaving
p3371
aVled
p3372
aVleeway
p3373
aVleft
p3374
aVleftist
p3375
aVleftovers
p3376
aVlegal
p3377
aVlegislation
p3378
aVlegislative
p3379
aVlegislators
p3380
aVlength
p3381
aVless
p3382
aVlesser
p3383
aVlesson
p3384
aVlet
p3385
aVletter
p3386
aVletters
p3387
aVlevel
p3388
aVlevels
p3389
aVleverage
p3390
aVleveraged
p3391
aVliaison
p3392
aVliberals
p3393
aVliberation
p3394
aVlibertarians
p3395
aVlibrarians
p3396
aVlicense
p3397
aVlife
p3398
aVlift
p3399
aVlifted
p3400
aVlifting
p3401
aVlight
p3402
aVlighten
p3403
aVlighthearted
p3404
aVlike
p3405
aVlikely
p3406
aVlikened
p3407
aVlimit
p3408
aVlimited
p3409
aVlimits
p3410
aVline
p3411
aVlines
p3412
aVlineups
p3413
aVlink
p3414
aVlinked
p3415
aVlions
p3416
aVliquid
p3417
aVliquidity
p3418
aVlisted
p3419
aVlisten
p3420
aVlisteners
p3421
aVlistening
p3422
aVlisting
p3423
aVlitmus
p3424
aVlittle
p3425
aVlive
p3426
aVlived
p3427
aVlivelier
p3428
aVlives
p3429
aVliving
p3430
aVloan
p3431
aVloans
p3432
aVlobby
p3433
aVlobbying
p3434
aVlocal
p3435
aVlocalities
p3436
aVlocation
p3437
aVlock
p3438
aVlong
p3439
aVlonger
p3440
aVlook
p3441
aVlooked
p3442
aVlooking
p3443
aVlooks
p3444
aVloose
p3445
aVlooting
p3446
aVlose
p3447
aVloses
p3448
aVlosing
p3449
aVloss
p3450
aVlosses
p3451
aVlost
p3452
aVlot
p3453
aVlots
p3454
aVlousy
p3455
aVloutish
p3456
aVlovable
p3457
aVlow
p3458
aVlower
p3459
aVlowest
p3460
aVloyalty
p3461
aVlucrative
p3462
aVlunch
p3463
aVluxury
p3464
aVmachinery
p3465
aVmachines
p3466
aVmade
p3467
aVmagazine
p3468
aVmagazines
p3469
aVmagnate
p3470
aVmain
p3471
aVmainly
p3472
aVmaintain
p3473
aVmajor
p3474
aVmajority
p3475
aVmake
p3476
aVmaker
p3477
aVmakers
p3478
aVmakes
p3479
aVmaking
p3480
aVmales
p3481
aVman
p3482
aVmanaged
p3483
aVmanagement
p3484
aVmanager
p3485
aVmanagers
p3486
aVmanages
p3487
aVmanaging
p3488
aVmandate
p3489
aVmandatory
p3490
aVmanifest
p3491
aVmanpower
p3492
aVmanufacture
p3493
aVmanufactured
p3494
aVmanufacturer
p3495
aVmanufacturers
p3496
aVmanufacturing
p3497
aVmany
p3498
aVmapped
p3499
aVmarch
p3500
aVmargin
p3501
aVmargins
p3502
aVmarine
p3503
aVmark
p3504
aVmarket
p3505
aVmarketeers
p3506
aVmarketing
p3507
aVmarketplace
p3508
aVmarketplaces
p3509
aVmarkets
p3510
aVmarks
p3511
aVmarriage
p3512
aVmarried
p3513
aVmarvelously
p3514
aVmassacre
p3515
aVmasses
p3516
aVmassive
p3517
aVmaster
p3518
aVmatch
p3519
aVmatter
p3520
aVmatters
p3521
aVmay
p3522
aVme
p3523
aVmean
p3524
aVmeaning
p3525
aVmeans
p3526
aVmeant
p3527
aVmeantime
p3528
aVmeanwhile
p3529
aVmeasure
p3530
aVmeasures
p3531
aVmechanisms
p3532
aVmedia
p3533
aVmedical
p3534
aVmedium
p3535
aVmeet
p3536
aVmeeting
p3537
aVmeets
p3538
aVmega-hit
p3539
aVmeltdown
p3540
aVmember
p3541
aVmembers
p3542
aVmen
p3543
aVmenial
p3544
aVmention
p3545
aVmenu
p3546
aVmerchandise
p3547
aVmerchant
p3548
aVmerge
p3549
aVmerger
p3550
aVmerit
p3551
aVmerits
p3552
aVmess
p3553
aVmessage
p3554
aVmessengers
p3555
aVmetal
p3556
aVmetalworkers
p3557
aVmetaphor
p3558
aVmetro
p3559
aVmetropolitan
p3560
aVmicrochips
p3561
aVmid-1970s
p3562
aVmid-1980s
p3563
aVmid-1988
p3564
aVmid-1990s
p3565
aVmid-20
p3566
aVmid-June
p3567
aVmid-sized
p3568
aVmidday
p3569
aVmiddle
p3570
aVmidnight
p3571
aVmidst
p3572
aVmight
p3573
aVmilitant
p3574
aVmilitary
p3575
aVmillion
p3576
aVmillions
p3577
aVmind
p3578
aVminded
p3579
aVminerals
p3580
aVminers
p3581
aVmines
p3582
aVminimizing
p3583
aVminimum
p3584
aVminister
p3585
aVministers
p3586
aVminivans
p3587
aVminor
p3588
aVminority
p3589
aVminors
p3590
aVminute
p3591
aVminutes
p3592
aVmiracle
p3593
aVmisadventure
p3594
aVmiscegenation
p3595
aVmischief
p3596
aVmismatch
p3597
aVmisplaced
p3598
aVmiss
p3599
aVmissed
p3600
aVmissile
p3601
aVmission
p3602
aVmistake
p3603
aVmistakes
p3604
aVmix
p3605
aVmixed
p3606
aVmobilized
p3607
aVmodel
p3608
aVmodels
p3609
aVmoderate
p3610
aVmoderates
p3611
aVmodest
p3612
aVmodicum
p3613
aVmoment
p3614
aVmomentum
p3615
aVmoney
p3616
aVmonitor
p3617
aVmonitored
p3618
aVmonitoring
p3619
aVmonopoly
p3620
aVmonth
p3621
aVmonthly
p3622
aVmonths
p3623
aVmood
p3624
aVmop
p3625
aVmoral
p3626
aVmorass
p3627
aVmore
p3628
aVmoreover
p3629
aVmorning
p3630
aVmortgage
p3631
aVmost
p3632
aVmostly
p3633
aVmothballing
p3634
aVmother
p3635
aVmotive
p3636
aVmove
p3637
aVmovement
p3638
aVmoves
p3639
aVmovie
p3640
aVmovies
p3641
aVmoving
p3642
aVmuch
p3643
aVmuck
p3644
aVmultifamily
p3645
aVmultinational
p3646
aVmultiplied
p3647
aVmunicipals
p3648
aVmushroomed
p3649
aVmusic
p3650
aVmusical
p3651
aVmust
p3652
aVmutate
p3653
aVmutual
p3654
aVmy
p3655
aVn't
p3656
aVname
p3657
aVnamed
p3658
aVnarrowing
p3659
aVnation
p3660
aVnational
p3661
aVnations
p3662
aVnationwide
p3663
aVnearby
p3664
aVnearing
p3665
aVnearly
p3666
aVnecessarily
p3667
aVnecessary
p3668
aVneed
p3669
aVneeded
p3670
aVneeds
p3671
aVnegative
p3672
aVnegatively
p3673
aVnegotiate
p3674
aVnegotiated
p3675
aVnegotiations
p3676
aVneither
p3677
aVnervous
p3678
aVnet
p3679
aVnetwork
p3680
aVnetworks
p3681
aVnever
p3682
aVnew
p3683
aVnewly
p3684
aVnews
p3685
aVnewspaper
p3686
aVnewspapers
p3687
aVnewsprint
p3688
aVnext
p3689
aVniche
p3690
aVnight
p3691
aVnine
p3692
aVno
p3693
aVnon-U.S.
p3694
aVnon-answer
p3695
aVnon-insurance
p3696
aVnon-profit
p3697
aVnon-staple
p3698
aVnon-strategic
p3699
aVnone
p3700
aVnor
p3701
aVnormal
p3702
aVnormalcy
p3703
aVnostalgia
p3704
aVnot
p3705
aVnotable
p3706
aVnotably
p3707
aVnoted
p3708
aVnotes
p3709
aVnothing
p3710
aVnotice
p3711
aVnoticed
p3712
aVnotified
p3713
aVnotion
p3714
aVnouvelle
p3715
aVnow
p3716
aVnowadays
p3717
aVnumber
p3718
aVnumbers
p3719
aVnumerous
p3720
aVobjectionable
p3721
aVobjections
p3722
aVobligation
p3723
aVobligations
p3724
aVobligatory
p3725
aVobservation
p3726
aVobserver
p3727
aVobservers
p3728
aVobtain
p3729
aVobtained
p3730
aVoccupation
p3731
aVoccur
p3732
aVoccurred
p3733
aVoccurring
p3734
aVof
p3735
aVoff
p3736
aVoffer
p3737
aVoffered
p3738
aVoffering
p3739
aVoffers
p3740
aVoffice
p3741
aVofficer
p3742
aVofficers
p3743
aVoffices
p3744
aVofficial
p3745
aVofficially
p3746
aVofficials
p3747
aVoffset
p3748
aVoffspring
p3749
aVoften
p3750
aVold
p3751
aVolds
p3752
aVomnibus
p3753
aVon
p3754
aVonce
p3755
aVone
p3756
aVones
p3757
aVonly
p3758
aVopen
p3759
aVopened
p3760
aVopening
p3761
aVopens
p3762
aVoperate
p3763
aVoperated
p3764
aVoperates
p3765
aVoperating
p3766
aVoperation
p3767
aVoperations
p3768
aVoperator
p3769
aVopinions
p3770
aVopponent
p3771
aVopponents
p3772
aVopportunistic
p3773
aVopportunities
p3774
aVopportunity
p3775
aVoppose
p3776
aVopposed
p3777
aVopposition
p3778
aVoptics
p3779
aVoption
p3780
aVoptions
p3781
aVor
p3782
aVorchids
p3783
aVorder
p3784
aVordered
p3785
aVordering
p3786
aVorderly
p3787
aVorders
p3788
aVordinary
p3789
aVorganization
p3790
aVorganizational
p3791
aVorganizations
p3792
aVorganize
p3793
aVorganizing
p3794
aVoriented
p3795
aVoriginally
p3796
aVostensible
p3797
aVother
p3798
aVothers
p3799
aVour
p3800
aVousting
p3801
aVout
p3802
aVoutlawed
p3803
aVoutlined
p3804
aVoutlook
p3805
aVoutput
p3806
aVoutright
p3807
aVouts
p3808
aVoutset
p3809
aVoutside
p3810
aVoutspoken
p3811
aVoutstanding
p3812
aVoutstripped
p3813
aVover
p3814
aVoverall
p3815
aVoverarching
p3816
aVoverbuilt
p3817
aVovercapacity
p3818
aVovercome
p3819
aVoverdue
p3820
aVoverpay
p3821
aVoverreact
p3822
aVoverreacted
p3823
aVoverseas
p3824
aVoversee
p3825
aVoverseeing
p3826
aVoversees
p3827
aVoversight
p3828
aVoverstrained
p3829
aVoversubscribed
p3830
aVovert
p3831
aVoverthrow
p3832
aVowe
p3833
aVown
p3834
aVowned
p3835
aVowner
p3836
aVowners
p3837
aVowning
p3838
aVowns
p3839
aVp.m
p3840
aVp.m.
p3841
aVpace
p3842
aVpachinko
p3843
aVpacked
p3844
aVpact
p3845
aVpage
p3846
aVpages
p3847
aVpaid
p3848
aVpaint
p3849
aVpair
p3850
aVpalatable
p3851
aVpalate
p3852
aVpall
p3853
aVpalm
p3854
aVpanel
p3855
aVpanic
p3856
aVpanicky
p3857
aVpaper
p3858
aVpapers
p3859
aVparakeets
p3860
aVpare
p3861
aVparent
p3862
aVparents
p3863
aVparliamentary
p3864
aVparlor
p3865
aVpart
p3866
aVparte
p3867
aVparticipant
p3868
aVparticipants
p3869
aVparticipate
p3870
aVparticipated
p3871
aVparticipating
p3872
aVparticipation
p3873
aVparticular
p3874
aVparticularly
p3875
aVparties
p3876
aVpartly
p3877
aVpartner
p3878
aVparts
p3879
aVparty
p3880
aVpass
p3881
aVpassable
p3882
aVpassage
p3883
aVpassed
p3884
aVpassionate
p3885
aVpassive
p3886
aVpast
p3887
aVpatriarchate
p3888
aVpatriotic
p3889
aVpatronage
p3890
aVpause
p3891
aVpauses
p3892
aVpay
p3893
aVpaying
p3894
aVpayment
p3895
aVpayments
p3896
aVpeace
p3897
aVpeaceful
p3898
aVpeak
p3899
aVpeaks
p3900
aVpeculiar
p3901
aVpeddle
p3902
aVpence
p3903
aVpeople
p3904
aVper
p3905
aVpercentage
p3906
aVperfect
p3907
aVperfidious
p3908
aVperform
p3909
aVperformance
p3910
aVperforming
p3911
aVperhaps
p3912
aVperiod
p3913
aVpermanent
p3914
aVpermission
p3915
aVpermits
p3916
aVpermitted
p3917
aVpersonal
p3918
aVpersonalities
p3919
aVpersonally
p3920
aVpersonnel
p3921
aVperspective
p3922
aVpervaded
p3923
aVpet
p3924
aVpetrochemical
p3925
aVphone
p3926
aVphoned
p3927
aVphones
p3928
aVpick
p3929
aVpicketing
p3930
aVpickups
p3931
aVpicture
p3932
aVpictures
p3933
aVpiece
p3934
aVpieces
p3935
aVpilot
p3936
aVpilots
p3937
aVpinball
p3938
aVpinched
p3939
aVpiranha
p3940
aVpit
p3941
aVplace
p3942
aVplaced
p3943
aVplaces
p3944
aVplacing
p3945
aVplain
p3946
aVplan
p3947
aVplanned
p3948
aVplanning
p3949
aVplans
p3950
aVplant
p3951
aVplanting
p3952
aVplants
p3953
aVplastic
p3954
aVplatter
p3955
aVplay
p3956
aVplayed
p3957
aVplayers
p3958
aVplaygrounds
p3959
aVplaying
p3960
aVplays
p3961
aVpleasing
p3962
aVpledges
p3963
aVplenty
p3964
aVpliers
p3965
aVplight
p3966
aVplot
p3967
aVplummet
p3968
aVplummeted
p3969
aVplummeting
p3970
aVplunge
p3971
aVplunged
p3972
aVplus
p3973
aVplush
p3974
aVpneumonia
p3975
aVpockets
p3976
aVpoint
p3977
aVpointed
p3978
aVpoints
p3979
aVpoised
p3980
aVpolicies
p3981
aVpolicy
p3982
aVpolitic
p3983
aVpolitical
p3984
aVpolitically
p3985
aVpoliticians
p3986
aVpoliticized
p3987
aVpolitics
p3988
aVpolls
p3989
aVpony
p3990
aVpoor
p3991
aVpoorer
p3992
aVpoorly
p3993
aVpopular
p3994
aVpopulation
p3995
aVpork
p3996
aVporridge
p3997
aVport
p3998
aVportable
p3999
aVportfolio
p4000
aVportion
p4001
aVportions
p4002
aVportrayals
p4003
aVportrayed
p4004
aVpose
p4005
aVposing
p4006
aVposition
p4007
aVpositions
p4008
aVpossibility
p4009
aVpossible
p4010
aVpossibly
p4011
aVpost-World
p4012
aVpost-crash
p4013
aVpost-electoral
p4014
aVpostal
p4015
aVposted
p4016
aVposters
p4017
aVpostpone
p4018
aVpostponed
p4019
aVpot
p4020
aVpotential
p4021
aVpotentially
p4022
aVpounds
p4023
aVpour
p4024
aVpower
p4025
aVpowerboat
p4026
aVpowered
p4027
aVpowerful
p4028
aVpowerless
p4029
aVpractically
p4030
aVpre-trial
p4031
aVprecipitous
p4032
aVpredetermined
p4033
aVpredict
p4034
aVpredictable
p4035
aVprefer
p4036
aVpreferably
p4037
aVpreliminary
p4038
aVpremier
p4039
aVpremiered
p4040
aVpremise
p4041
aVpremises
p4042
aVpremium
p4043
aVpreoccupied
p4044
aVpreparation
p4045
aVprepared
p4046
aVpreparing
p4047
aVprerequisite
p4048
aVpresence
p4049
aVpresent
p4050
aVpresented
p4051
aVpresently
p4052
aVpreserving
p4053
aVpresident
p4054
aVpresidential
p4055
aVpress
p4056
aVpressed
p4057
aVpressing
p4058
aVpressure
p4059
aVpressures
p4060
aVprestigious
p4061
aVpretax
p4062
aVpretty
p4063
aVprevails
p4064
aVprevent
p4065
aVprevented
p4066
aVprevious
p4067
aVpreviously
p4068
aVprey
p4069
aVprice
p4070
aVpriced
p4071
aVprices
p4072
aVpriests
p4073
aVprimarily
p4074
aVprimary
p4075
aVprime
p4076
aVprincipal
p4077
aVprinciple
p4078
aVprinted
p4079
aVprinting
p4080
aVprior
p4081
aVprison
p4082
aVprivate
p4083
aVprivately
p4084
aVprivy
p4085
aVpro-Soviet
p4086
aVprobably
p4087
aVprobe
p4088
aVproblem
p4089
aVproblematic
p4090
aVproblems
p4091
aVprocedural
p4092
aVprocedures
p4093
aVproceedings
p4094
aVproceeds
p4095
aVprocess
p4096
aVprocessing
p4097
aVproclamations
p4098
aVprod
p4099
aVprodding
p4100
aVproduce
p4101
aVproduced
p4102
aVproducer
p4103
aVproducers
p4104
aVproduces
p4105
aVproducing
p4106
aVproduct
p4107
aVproduction
p4108
aVproductive
p4109
aVproducts
p4110
aVprofesses
p4111
aVprofessional
p4112
aVprofessionals
p4113
aVproficient
p4114
aVprofit
p4115
aVprofitable
p4116
aVprofits
p4117
aVprofoundly
p4118
aVprogenitors
p4119
aVprogram
p4120
aVprogramming
p4121
aVprograms
p4122
aVprohibit
p4123
aVproject
p4124
aVprojecting
p4125
aVprojects
p4126
aVprominent
p4127
aVpromise
p4128
aVpromised
p4129
aVpromises
p4130
aVpromote
p4131
aVpromoted
p4132
aVpromoting
p4133
aVpromotion
p4134
aVprompt
p4135
aVprompted
p4136
aVpromptly
p4137
aVproof
p4138
aVpropagandists
p4139
aVproper
p4140
aVproperty
p4141
aVprophecy
p4142
aVproponents
p4143
aVproposal
p4144
aVproposals
p4145
aVpropose
p4146
aVproposed
p4147
aVproposing
p4148
aVpropositions
p4149
aVpropsed
p4150
aVpropulsion
p4151
aVprospective
p4152
aVprospects
p4153
aVprospectus
p4154
aVprosperous
p4155
aVprotect
p4156
aVprotected
p4157
aVprotection
p4158
aVprotests
p4159
aVprototypes
p4160
aVprove
p4161
aVproved
p4162
aVprovide
p4163
aVprovided
p4164
aVprovides
p4165
aVproviding
p4166
aVprovince
p4167
aVprovincial
p4168
aVprovision
p4169
aVprovisions
p4170
aVprovocation
p4171
aVprudent
p4172
aVpseudosocialism
p4173
aVpsychic
p4174
aVpublic
p4175
aVpublication
p4176
aVpublicity
p4177
aVpublicly
p4178
aVpull
p4179
aVpulled
p4180
aVpunky
p4181
aVpurchase
p4182
aVpurchased
p4183
aVpurchases
p4184
aVpurportedly
p4185
aVpurpose
p4186
aVpurposes
p4187
aVpursue
p4188
aVpursued
p4189
aVpush
p4190
aVpushed
p4191
aVpushes
p4192
aVpushing
p4193
aVput
p4194
aVputs
p4195
aVpuzzled
p4196
aVquaint
p4197
aVqualify
p4198
aVquality
p4199
aVquarter
p4200
aVquestion
p4201
aVquestions
p4202
aVquicken
p4203
aVquickly
p4204
aVquid
p4205
aVquiet
p4206
aVquit
p4207
aVquite
p4208
aVquota
p4209
aVquotas
p4210
aVquotations
p4211
aVquoted
p4212
aVquoting
p4213
aVracial
p4214
aVracially
p4215
aVradical
p4216
aVradio
p4217
aVradios
p4218
aVrail
p4219
aVrailroad
p4220
aVraise
p4221
aVraised
p4222
aVraising
p4223
aVraked
p4224
aVrallied
p4225
aVrally
p4226
aVran
p4227
aVrange
p4228
aVranging
p4229
aVranks
p4230
aVrapid
p4231
aVrate
p4232
aVrates
p4233
aVrather
p4234
aVrating
p4235
aVrationale
p4236
aVre-election
p4237
aVre-energized
p4238
aVre-exports
p4239
aVreach
p4240
aVreached
p4241
aVreaching
p4242
aVreacting
p4243
aVreaction
p4244
aVreactivated
p4245
aVread
p4246
aVreading
p4247
aVreadings
p4248
aVreadjustment
p4249
aVready
p4250
aVreal
p4251
aVrealestate
p4252
aVrealize
p4253
aVrealized
p4254
aVrealizing
p4255
aVreally
p4256
aVreason
p4257
aVreasonable
p4258
aVreasonably
p4259
aVreasoned
p4260
aVreasons
p4261
aVrebate
p4262
aVrebates
p4263
aVrebirth
p4264
aVrebound
p4265
aVrebounded
p4266
aVrebounds
p4267
aVrecalls
p4268
aVreceive
p4269
aVreceived
p4270
aVreceives
p4271
aVreceiving
p4272
aVrecent
p4273
aVrecently
p4274
aVrecession
p4275
aVrecipe
p4276
aVrecipient
p4277
aVreckless
p4278
aVrecognizing
p4279
aVrecommendations
p4280
aVrecommended
p4281
aVreconciliation
p4282
aVreconsider
p4283
aVrecord
p4284
aVrecorder
p4285
aVrecording
p4286
aVrecoup
p4287
aVrecovering
p4288
aVrecovery
p4289
aVrecruitment
p4290
aVrectification
p4291
aVrecycling
p4292
aVred
p4293
aVredeemed
p4294
aVredemptions
p4295
aVreduce
p4296
aVreduced
p4297
aVreducing
p4298
aVreduction
p4299
aVrefer
p4300
aVreferring
p4301
aVreflect
p4302
aVreflecting
p4303
aVreflexively
p4304
aVreform
p4305
aVreformers
p4306
aVreforms
p4307
aVrefrigeration
p4308
aVrefugee
p4309
aVrefused
p4310
aVrefusers
p4311
aVregain
p4312
aVregard
p4313
aVregarding
p4314
aVregards
p4315
aVregime
p4316
aVregimentation
p4317
aVregion
p4318
aVregional
p4319
aVregistration
p4320
aVregularly
p4321
aVregulated
p4322
aVregulating
p4323
aVregulation
p4324
aVregulations
p4325
aVregulator
p4326
aVregulators
p4327
aVregulatory
p4328
aVrehabilitated
p4329
aVrehabilitation
p4330
aVreimbursement
p4331
aVreinforce
p4332
aVreject
p4333
aVrelated
p4334
aVrelations
p4335
aVrelative
p4336
aVrelatively
p4337
aVrelease
p4338
aVreleased
p4339
aVreleases
p4340
aVrelentless
p4341
aVreliance
p4342
aVrelief
p4343
aVreligion
p4344
aVreligious
p4345
aVreluctance
p4346
aVremain
p4347
aVremained
p4348
aVremaining
p4349
aVremains
p4350
aVremake
p4351
aVremarked
p4352
aVremarks
p4353
aVremember
p4354
aVremove
p4355
aVremoved
p4356
aVrename
p4357
aVrender
p4358
aVrendered
p4359
aVrenewed
p4360
aVrenewing
p4361
aVreopening
p4362
aVreoriented
p4363
aVrepair
p4364
aVrepairs
p4365
aVrepeat
p4366
aVrepeatedly
p4367
aVreplace
p4368
aVreplaced
p4369
aVreplays
p4370
aVreplied
p4371
aVreport
p4372
aVreported
p4373
aVreporters
p4374
aVreporting
p4375
aVreports
p4376
aVrepresentative
p4377
aVrepresentatives
p4378
aVrepresents
p4379
aVrepressive
p4380
aVreptilian
p4381
aVrepublic
p4382
aVreputation
p4383
aVrequest
p4384
aVrequire
p4385
aVrequired
p4386
aVrequirements
p4387
aVrequires
p4388
aVrequiring
p4389
aVrerun
p4390
aVreruns
p4391
aVrescinding
p4392
aVresearch
p4393
aVresemblances
p4394
aVresemble
p4395
aVresentment
p4396
aVreserve
p4397
aVreserves
p4398
aVreshaped
p4399
aVresidential
p4400
aVresidents
p4401
aVresiding
p4402
aVresignation
p4403
aVresigned
p4404
aVresistance
p4405
aVresisted
p4406
aVresolve
p4407
aVresorts
p4408
aVresources
p4409
aVrespect
p4410
aVrespected
p4411
aVrespectively
p4412
aVresponses
p4413
aVresponsible
p4414
aVrest
p4415
aVrestaurant
p4416
aVrestaurants
p4417
aVrestored
p4418
aVrestrained
p4419
aVrestraints
p4420
aVrestrict
p4421
aVrestricted
p4422
aVrestricting
p4423
aVrestriction
p4424
aVrestrictions
p4425
aVrestructure
p4426
aVrestructuring
p4427
aVrestructurings
p4428
aVresult
p4429
aVresulted
p4430
aVresulting
p4431
aVresults
p4432
aVresurrect
p4433
aVretail
p4434
aVretailer
p4435
aVretailing
p4436
aVretain
p4437
aVretained
p4438
aVretaliation
p4439
aVreticence
p4440
aVretired
p4441
aVreturn
p4442
aVreturned
p4443
aVreunited
p4444
aVrevamp
p4445
aVrevenue
p4446
aVrevenues
p4447
aVreverse
p4448
aVreview
p4449
aVrevised
p4450
aVrevision
p4451
aVrevive
p4452
aVrevived
p4453
aVrewarding
p4454
aVrewards
p4455
aVribbons
p4456
aVriches
p4457
aVrickety
p4458
aVrid
p4459
aVrift
p4460
aVright
p4461
aVrights
p4462
aVrise
p4463
aVrisen
p4464
aVrising
p4465
aVrisk
p4466
aVrival
p4467
aVrivals
p4468
aVrobotic
p4469
aVrobust
p4470
aVrock
p4471
aVrocket
p4472
aVrole
p4473
aVroles
p4474
aVroll
p4475
aVroom
p4476
aVrooms
p4477
aVrose
p4478
aVrotting
p4479
aVroughly
p4480
aVround
p4481
aVrout
p4482
aVroutine
p4483
aVroyalty
p4484
aVrule
p4485
aVruled
p4486
aVrulers
p4487
aVrules
p4488
aVrumors
p4489
aVrun
p4490
aVrunaway
p4491
aVrunning
p4492
aVruns
p4493
aVrush
p4494
aVrushed
p4495
aVsabotage
p4496
aVsacrifice
p4497
aVsafeguards
p4498
aVsafest
p4499
aVsafety
p4500
aVsaid
p4501
aVsalaries
p4502
aVsale
p4503
aVsales
p4504
aVsalesman
p4505
aVsame
p4506
aVsamples
p4507
aVsandwich
p4508
aVsank
p4509
aVsat
p4510
aVsatisfaction
p4511
aVsatisfied
p4512
aVsatisfy
p4513
aVsatisfying
p4514
aVsaves
p4515
aVsaving
p4516
aVsavvy
p4517
aVsaw
p4518
aVsay
p4519
aVsaying
p4520
aVsays
p4521
aVscale
p4522
aVscandal
p4523
aVscandals
p4524
aVscarcely
p4525
aVscared
p4526
aVscarves
p4527
aVscene
p4528
aVscheduled
p4529
aVscheme
p4530
aVscholarship
p4531
aVscholarships
p4532
aVschool
p4533
aVschooling
p4534
aVschools
p4535
aVscience
p4536
aVscope
p4537
aVscreening
p4538
aVscrewball
p4539
aVscript
p4540
aVscuttled
p4541
aVseals
p4542
aVsearching
p4543
aVseason
p4544
aVseasonally
p4545
aVseat
p4546
aVsecond
p4547
aVsecrecy
p4548
aVsecret
p4549
aVsecretary
p4550
aVsector
p4551
aVsecurities
p4552
aVsecurity
p4553
aVsee
p4554
aVseeds
p4555
aVseeing
p4556
aVseek
p4557
aVseeking
p4558
aVseem
p4559
aVseemed
p4560
aVseemingly
p4561
aVseems
p4562
aVseen
p4563
aVsegmentation
p4564
aVsegregation
p4565
aVseized
p4566
aVselective
p4567
aVself
p4568
aVsell
p4569
aVselling
p4570
aVsenator
p4571
aVsenators
p4572
aVsenior
p4573
aVsense
p4574
aVsensible
p4575
aVsensitive
p4576
aVsentenced
p4577
aVseparate
p4578
aVsequel
p4579
aVseries
p4580
aVserious
p4581
aVservants
p4582
aVserve
p4583
aVserved
p4584
aVservice
p4585
aVservices
p4586
aVserving
p4587
aVsession
p4588
aVset
p4589
aVsetback
p4590
aVsetbacks
p4591
aVsetting
p4592
aVsettle
p4593
aVsettled
p4594
aVsettlement
p4595
aVseven
p4596
aVseveral
p4597
aVsevere
p4598
aVseverely
p4599
aVsexes
p4600
aVshaken
p4601
aVshaky
p4602
aVshape
p4603
aVshare
p4604
aVshareholder
p4605
aVshares
p4606
aVsharing
p4607
aVsharp
p4608
aVsharply
p4609
aVshe
p4610
aVshift
p4611
aVshifted
p4612
aVshifts
p4613
aVshirts
p4614
aVshoestring
p4615
aVshook
p4616
aVshootings
p4617
aVshop
p4618
aVshopping
p4619
aVshort
p4620
aVshortly
p4621
aVshot
p4622
aVshould
p4623
aVshouted
p4624
aVshow
p4625
aVshowed
p4626
aVshowing
p4627
aVshown
p4628
aVshows
p4629
aVshuffle
p4630
aVshutdown
p4631
aVside
p4632
aVsidelined
p4633
aVsides
p4634
aVsidestep
p4635
aVsign
p4636
aVsignal
p4637
aVsignaled
p4638
aVsignificant
p4639
aVsignificantly
p4640
aVsigning
p4641
aVsigns
p4642
aVsilence
p4643
aVsimilar
p4644
aVsimple
p4645
aVsimply
p4646
aVsimultaneously
p4647
aVsince
p4648
aVsinger
p4649
aVsingle
p4650
aVsister
p4651
aVsit
p4652
aVsite
p4653
aVsites
p4654
aVsitting
p4655
aVsix
p4656
aVsixty
p4657
aVsize
p4658
aVskidded
p4659
aVskills
p4660
aVskim
p4661
aVskin
p4662
aVskirmished
p4663
aVskirting
p4664
aVskittish
p4665
aVskyline
p4666
aVslaps
p4667
aVslated
p4668
aVsleep
p4669
aVslice
p4670
aVslickly
p4671
aVslide
p4672
aVslight
p4673
aVslightly
p4674
aVslim
p4675
aVslingers
p4676
aVslot
p4677
aVslow
p4678
aVslowdown
p4679
aVslowing
p4680
aVslump
p4681
aVslumping
p4682
aVsmall
p4683
aVsmaller
p4684
aVsmallpox
p4685
aVsmart
p4686
aVsmokescreens
p4687
aVsnapping
p4688
aVso
p4689
aVsoared
p4690
aVsocial
p4691
aVsocialism
p4692
aVsocialist
p4693
aVsocieties
p4694
aVsociety
p4695
aVsociology
p4696
aVsocked
p4697
aVsoften
p4698
aVsold
p4699
aVsolely
p4700
aVsoliciting
p4701
aVsolution
p4702
aVsome
p4703
aVsomething
p4704
aVsomewhat
p4705
aVsoon
p4706
aVsooner
p4707
aVsophisticated
p4708
aVsops
p4709
aVsounding
p4710
aVsource
p4711
aVsources
p4712
aVsourcing
p4713
aVsouthern
p4714
aVspace
p4715
aVspark
p4716
aVspeaking
p4717
aVspecial
p4718
aVspecialists
p4719
aVspecialty
p4720
aVspecies
p4721
aVspecific
p4722
aVspecified
p4723
aVspecify
p4724
aVspeculation
p4725
aVspeculative
p4726
aVspeech
p4727
aVspeed
p4728
aVspend
p4729
aVspending
p4730
aVspent
p4731
aVspies
p4732
aVspirit
p4733
aVsplit
p4734
aVspoil
p4735
aVspoke
p4736
aVspokesman
p4737
aVsponsored
p4738
aVsponsoring
p4739
aVspooked
p4740
aVsport
p4741
aVsporting
p4742
aVspot
p4743
aVspread
p4744
aVspring
p4745
aVspun
p4746
aVspurt
p4747
aVsquabbles
p4748
aVsqueeze
p4749
aVstability
p4750
aVstabilizing
p4751
aVstaff
p4752
aVstaffed
p4753
aVstage
p4754
aVstaggering
p4755
aVstagnant
p4756
aVstake
p4757
aVstakes
p4758
aVstalling
p4759
aVstand
p4760
aVstandard
p4761
aVstandards
p4762
aVstandby
p4763
aVstanding
p4764
aVstandstill
p4765
aVstark
p4766
aVstart
p4767
aVstarted
p4768
aVstarting
p4769
aVstarts
p4770
aVstarving
p4771
aVstate
p4772
aVstatement
p4773
aVstatements
p4774
aVstates
p4775
aVstation
p4776
aVstations
p4777
aVstatist
p4778
aVstatue
p4779
aVstatus
p4780
aVstay
p4781
aVstays
p4782
aVsteady
p4783
aVsteals
p4784
aVsteam
p4785
aVsteel
p4786
aVsteep
p4787
aVsteeper
p4788
aVsteering
p4789
aVstench
p4790
aVstep
p4791
aVsteps
p4792
aVstern
p4793
aVsticky
p4794
aVstiff
p4795
aVstill
p4796
aVstipends
p4797
aVstock
p4798
aVstockholder
p4799
aVstocks
p4800
aVstoke
p4801
aVstolen
p4802
aVstop
p4803
aVstopped
p4804
aVstopping
p4805
aVstore
p4806
aVstores
p4807
aVstories
p4808
aVstory
p4809
aVstove
p4810
aVstrain
p4811
aVstrains
p4812
aVstrapped
p4813
aVstrategic
p4814
aVstrategies
p4815
aVstrategy
p4816
aVstreet
p4817
aVstreets
p4818
aVstrength
p4819
aVstrengthen
p4820
aVstress
p4821
aVstrictly
p4822
aVstrike
p4823
aVstriking
p4824
aVstrip
p4825
aVstripe
p4826
aVstripes
p4827
aVstripped
p4828
aVstripping
p4829
aVstrong
p4830
aVstrongly
p4831
aVstruck
p4832
aVstructure
p4833
aVstructured
p4834
aVstructures
p4835
aVstruggle
p4836
aVstubbornly
p4837
aVstuck
p4838
aVstudent
p4839
aVstudents
p4840
aVstudied
p4841
aVstudies
p4842
aVstudio
p4843
aVstudios
p4844
aVstudy
p4845
aVstuff
p4846
aVstumbling
p4847
aVstunning
p4848
aVstupid
p4849
aVstyle
p4850
aVstyled
p4851
aVsubcommittee
p4852
aVsubject
p4853
aVsubscribers
p4854
aVsubsequent
p4855
aVsubsidiary
p4856
aVsubsidies
p4857
aVsubstantially
p4858
aVsubstantive
p4859
aVsubstitute
p4860
aVsubway
p4861
aVsucceeded
p4862
aVsucceeding
p4863
aVsucceeds
p4864
aVsuccess
p4865
aVsuccesses
p4866
aVsuccessful
p4867
aVsuccession
p4868
aVsuccessor
p4869
aVsuch
p4870
aVsuddenly
p4871
aVsued
p4872
aVsuffer
p4873
aVsuffered
p4874
aVsuffering
p4875
aVsuggest
p4876
aVsuggested
p4877
aVsuggesting
p4878
aVsuit
p4879
aVsuitor
p4880
aVsummer
p4881
aVsums
p4882
aVsun
p4883
aVsuper-regulator
p4884
aVsupersonic
p4885
aVsupervision
p4886
aVsupplier
p4887
aVsupply
p4888
aVsupport
p4889
aVsupporting
p4890
aVsupposedly
p4891
aVsure
p4892
aVsurely
p4893
aVsurge
p4894
aVsurged
p4895
aVsurges
p4896
aVsurgical
p4897
aVsurprise
p4898
aVsurprised
p4899
aVsurrounded
p4900
aVsurvey
p4901
aVsurvive
p4902
aVsurvives
p4903
aVsuspect
p4904
aVsuspended
p4905
aVsuspending
p4906
aVsuspension
p4907
aVsustained
p4908
aVswallow
p4909
aVsweeping
p4910
aVswitch
p4911
aVsymbol
p4912
aVsyn
p4913
aVsyndicate
p4914
aVsyndication
p4915
aVsynthesizer
p4916
aVsystem
p4917
aVsystems
p4918
aVtables
p4919
aVtactics
p4920
aVtailed
p4921
aVtake
p4922
aVtaken
p4923
aVtakeover
p4924
aVtakeovers
p4925
aVtakes
p4926
aVtaking
p4927
aVtalk
p4928
aVtalked
p4929
aVtalking
p4930
aVtalks
p4931
aVtall
p4932
aVtame
p4933
aVtandem
p4934
aVtantalizingly
p4935
aVtape
p4936
aVtardy
p4937
aVtarget
p4938
aVtargeted
p4939
aVtargets
p4940
aVtask
p4941
aVtasks
p4942
aVtax
p4943
aVtaxes
p4944
aVtaxpayers
p4945
aVteach
p4946
aVteam
p4947
aVtechnical
p4948
aVtechnology
p4949
aVteddy
p4950
aVtelephone
p4951
aVtelephones
p4952
aVtelevision
p4953
aVtemperature
p4954
aVtemporary
p4955
aVtend
p4956
aVtends
p4957
aVtenets
p4958
aVtentative
p4959
aVtenure
p4960
aVterm
p4961
aVtermed
p4962
aVterminal
p4963
aVterminated
p4964
aVterms
p4965
aVterrible
p4966
aVterritory
p4967
aVterrorism
p4968
aVterrorist
p4969
aVtest
p4970
aVtested
p4971
aVtestimony
p4972
aVthan
p4973
aVthankfully
p4974
aVthat
p4975
aVthe
p4976
aVtheft
p4977
aVtheir
p4978
aVthem
p4979
aVthemselves
p4980
aVthen
p4981
aVtheory
p4982
aVthere
p4983
aVtherefore
p4984
aVthese
p4985
aVthey
p4986
aVthing
p4987
aVthings
p4988
aVthink
p4989
aVthinking
p4990
aVthinks
p4991
aVthird
p4992
aVthis
p4993
aVthose
p4994
aVthough
p4995
aVthought
p4996
aVthousand
p4997
aVthousands
p4998
aVthrash
p4999
aVthreat
p5000
aVthreatened
p5001
aVthreatening
p5002
aVthreats
p5003
aVthree
p5004
aVthrift
p5005
aVthrifts
p5006
aVthrough
p5007
aVthroughout
p5008
aVthrow
p5009
aVthrowing
p5010
aVthwarted
p5011
aVthwarting
p5012
aVticker
p5013
aVticking
p5014
aVtidbits
p5015
aVtide
p5016
aVtighten
p5017
aVtightening
p5018
aVtime
p5019
aVtimes
p5020
aVtiny
p5021
aVtitle
p5022
aVto
p5023
aVtobacco
p5024
aVtoday
p5025
aVtogether
p5026
aVtold
p5027
aVtolerance
p5028
aVtomorrow
p5029
aVtone
p5030
aVtongues
p5031
aVtoo
p5032
aVtook
p5033
aVtooted
p5034
aVtop
p5035
aVtorpedoed
p5036
aVtotal
p5037
aVtotaling
p5038
aVtough
p5039
aVtougher
p5040
aVtoughest
p5041
aVtouted
p5042
aVtowns
p5043
aVtownships
p5044
aVtoy
p5045
aVtoys
p5046
aVtraces
p5047
aVtracks
p5048
aVtrade
p5049
aVtraded
p5050
aVtrademark
p5051
aVtrader
p5052
aVtraders
p5053
aVtrades
p5054
aVtrading
p5055
aVtradition
p5056
aVtraditional
p5057
aVtrail
p5058
aVtrain
p5059
aVtrainer
p5060
aVtrainers
p5061
aVtraining
p5062
aVtraipse
p5063
aVtransaction
p5064
aVtransactions
p5065
aVtransformed
p5066
aVtranslator
p5067
aVtransmogrified
p5068
aVtransportation
p5069
aVtreasury
p5070
aVtreatment
p5071
aVtrees
p5072
aVtrend
p5073
aVtrends
p5074
aVtrial
p5075
aVtrickery
p5076
aVtried
p5077
aVtries
p5078
aVtrigger
p5079
aVtriggered
p5080
aVtrips
p5081
aVtrivial
p5082
aVtrouble
p5083
aVtroubled
p5084
aVtroubles
p5085
aVtroublesome
p5086
aVtrough
p5087
aVtruck
p5088
aVtrucks
p5089
aVtrue
p5090
aVtrust
p5091
aVtry
p5092
aVtrying
p5093
aVtumbled
p5094
aVtune
p5095
aVturmoil
p5096
aVturn
p5097
aVturnaround
p5098
aVturned
p5099
aVturning
p5100
aVturtles
p5101
aVtutored
p5102
aVtutoring
p5103
aVtwice
p5104
aVtwo
p5105
aVtype
p5106
aVunable
p5107
aVunadited
p5108
aVunanswered
p5109
aVunavailable
p5110
aVunbanning
p5111
aVuncertain
p5112
aVuncertainty
p5113
aVunchanged
p5114
aVuncharted
p5115
aVunconditional
p5116
aVunconstitutional
p5117
aVunder
p5118
aVundercurrent
p5119
aVundercut
p5120
aVunderestimated
p5121
aVunderpriced
p5122
aVunderscores
p5123
aVunderselling
p5124
aVundersold
p5125
aVunderstand
p5126
aVunderstood
p5127
aVundervalued
p5128
aVunderwriter
p5129
aVunderwriting
p5130
aVundoubtedly
p5131
aVundue
p5132
aVunenforceable
p5133
aVunfair
p5134
aVunfolded
p5135
aVunfriendly
p5136
aVuniform
p5137
aVunify
p5138
aVunifying
p5139
aVuninhibited
p5140
aVunion
p5141
aVunionist
p5142
aVunit
p5143
aVunits
p5144
aVunlike
p5145
aVunlikely
p5146
aVunloaded
p5147
aVunmet
p5148
aVunpaid
p5149
aVunprecedented
p5150
aVunprecedentedly
p5151
aVunrealistic
p5152
aVunreasonable
p5153
aVunregulated
p5154
aVunrest
p5155
aVunrestrained
p5156
aVunshackled
p5157
aVunskilled
p5158
aVunsolicited
p5159
aVunspecified
p5160
aVunsubsidized
p5161
aVunsure
p5162
aVuntil
p5163
aVunusual
p5164
aVunusually
p5165
aVunwholesome
p5166
aVunwillingness
p5167
aVunwise
p5168
aVunwittingly
p5169
aVup
p5170
aVupgrading
p5171
aVupheld
p5172
aVupon
p5173
aVupstart
p5174
aVupward
p5175
aVuranium
p5176
aVurged
p5177
aVurging
p5178
aVus
p5179
aVuse
p5180
aVused
p5181
aVuseful
p5182
aVuser
p5183
aVuses
p5184
aVusing
p5185
aVusual
p5186
aVutilities
p5187
aVutility
p5188
aVutilization
p5189
aVutopian
p5190
aVvacancy
p5191
aVvacant
p5192
aVvacation
p5193
aVvague
p5194
aVvalue
p5195
aVvalued
p5196
aVvalues
p5197
aVvan
p5198
aVvanished
p5199
aVvans
p5200
aVvantage
p5201
aVvariety
p5202
aVvarious
p5203
aVvehicle
p5204
aVvehicles
p5205
aVvengeance
p5206
aVventure
p5207
aVventures
p5208
aVverbal
p5209
aVversion
p5210
aVvertical
p5211
aVvery
p5212
aVveteran
p5213
aVvetoed
p5214
aVviable
p5215
aVvice
p5216
aVvictory
p5217
aVvideo
p5218
aVview
p5219
aVviewers
p5220
aVviews
p5221
aVvigorously
p5222
aVviolating
p5223
aVviolations
p5224
aVviolence
p5225
aVvirus
p5226
aVvisited
p5227
aVvisitor
p5228
aVvociferous
p5229
aVvoice
p5230
aVvolatile
p5231
aVvolley
p5232
aVvolume
p5233
aVvolumes
p5234
aVvoluntarily
p5235
aVvoluntary
p5236
aVvolunteer
p5237
aVvolunteered
p5238
aVvolunteering
p5239
aVvolunteerism
p5240
aVvolunteers
p5241
aVvote
p5242
aVvoted
p5243
aVvoter
p5244
aVvoters
p5245
aVvotes
p5246
aVvoting
p5247
aVvoucher
p5248
aVvowed
p5249
aVvows
p5250
aVvs.
p5251
aVwage
p5252
aVwages
p5253
aVwait
p5254
aVwaiting
p5255
aVwake
p5256
aVwant
p5257
aVwanted
p5258
aVwants
p5259
aVwar
p5260
aVwarned
p5261
aVwarriors
p5262
aVwary
p5263
aVwas
p5264
aVwash
p5265
aVwastrel
p5266
aVwatched
p5267
aVwatching
p5268
aVwaxed
p5269
aVway
p5270
aVways
p5271
aVwe
p5272
aVweak
p5273
aVweakened
p5274
aVweakness
p5275
aVwealth
p5276
aVwears
p5277
aVweek
p5278
aVweekend
p5279
aVweekly
p5280
aVweeks
p5281
aVweight
p5282
aVwelcome
p5283
aVwell
p5284
aVwent
p5285
aVwere
p5286
aVwest
p5287
aVwhat
p5288
aVwhatsoever
p5289
aVwhen
p5290
aVwhere
p5291
aVwhether
p5292
aVwhich
p5293
aVwhile
p5294
aVwhite
p5295
aVwhites
p5296
aVwhittled
p5297
aVwho
p5298
aVwhole
p5299
aVwholesale
p5300
aVwhom
p5301
aVwhose
p5302
aVwhy
p5303
aVwide
p5304
aVwidely
p5305
aVwiden
p5306
aVwidened
p5307
aVwidening
p5308
aVwield
p5309
aVwild
p5310
aVwildlife
p5311
aVwill
p5312
aVwimp
p5313
aVwin
p5314
aVwing
p5315
aVwings
p5316
aVwins
p5317
aVwinter
p5318
aVwiretaps
p5319
aVwisdom
p5320
aVwiser
p5321
aVwishers
p5322
aVwitch
p5323
aVwith
p5324
aVwithdraw
p5325
aVwithdrawal
p5326
aVwithdrawing
p5327
aVwithdrew
p5328
aVwithholding
p5329
aVwithout
p5330
aVwitnessed
p5331
aVwo
p5332
aVwomen
p5333
aVwonder
p5334
aVword
p5335
aVwords
p5336
aVwork
p5337
aVworked
p5338
aVworkers
p5339
aVworking
p5340
aVworks
p5341
aVworld
p5342
aVworried
p5343
aVworry
p5344
aVworrying
p5345
aVworsening
p5346
aVworst
p5347
aVworth
p5348
aVworthless
p5349
aVworthwhile
p5350
aVworthy
p5351
aVwould
p5352
aVwound
p5353
aVwrapped
p5354
aVwrathful
p5355
aVwrenching
p5356
aVwrit
p5357
aVwrite
p5358
aVwriteoffs
p5359
aVwriter
p5360
aVwritten
p5361
aVwrong
p5362
aVwrote
p5363
aVx
p5364
aVyear
p5365
aVyears
p5366
aVyellow
p5367
aVyen
p5368
aVyesterday
p5369
aVyet
p5370
aVyield
p5371
aVyields
p5372
aVyou
p5373
aVyoung
p5374
aVyounger
p5375
aVyouth
p5376
aVyouths
p5377
aVyuan
p5378
aVyuppie
p5379
aVyuppies
p5380
aVz
p5381
aVzealous
p5382
aV{
p5383
aV}
p5384
a(lp5385
V$
p5386
aV''
p5387
aV,
p5388
aV-LRB-
p5389
aV-RRB-
p5390
aV.
p5391
aV:
p5392
aVCC
p5393
aVCD
p5394
aVDT
p5395
aVEX
p5396
aVFW
p5397
aVHYPH
p5398
aVIN
p5399
aVJJ
p5400
aVJJR
p5401
aVJJS
p5402
aVLS
p5403
aVMD
p5404
aVNN
p5405
aVNNP
p5406
aVNNPS
p5407
aVNNS
p5408
aVPDT
p5409
aVPOS
p5410
aVPRP
p5411
aVPRP$
p5412
aVRB
p5413
aVRBR
p5414
aVRBS
p5415
aVRP
p5416
aVSYM
p5417
aVTO
p5418
aVUH
p5419
aVVB
p5420
aVVBD
p5421
aVVBG
p5422
aVVBN
p5423
aVVBP
p5424
aVVBZ
p5425
aVWDT
p5426
aVWP
p5427
aVWP$
p5428
aVWRB
p5429
aV``
p5430
a(lp5431
S'able'
p5432
aS'al'
p5433
aS'ed'
p5434
aS'ing'
p5435
aS'er'
p5436
aS'est'
p5437
aS'ion'
p5438
aS'ive'
p5439
aS'less'
p5440
aS'ly'
p5441
aS'ness'
p5442
aS'ous'
p5443
aS'.'
p5444
atp5445
.((lp0
V!
p1
aV#
p2
aV$
p3
aV%
p4
aV&
p5
aV'
p6
aV''
p7
aV'd
p8
aV'll
p9
aV'm
p10
aV're
p11
aV's
p12
aV've
p13
aV(
p14
aV)
p15
aV,
p16
aV-
p17
aV--
p18
aV.
p19
aV...
p20
aV/
p21
aV0.01
p22
aV0.0343
p23
aV0.28
p24
aV0.4
p25
aV0.5
p26
aV0.7
p27
aV0.8
p28
aV0.9
p29
aV1
p30
aV1,000
p31
aV1,350,000
p32
aV1,450
p33
aV1.1
p34
aV1.2
p35
aV1.29
p36
aV1.3
p37
aV1.45
p38
aV1.5
p39
aV1.7
p40
aV1.8
p41
aV1.8740
p42
aV1/2
p43
aV10
p44
aV10,000
p45
aV10.05
p46
aV10.06.89
p47
aV10.4
p48
aV10.5
p49
aV100
p50
aV103
p51
aV11
p52
aV11,000
p53
aV11.28
p54
aV11.5
p55
aV11.9
p56
aV112,000
p57
aV12
p58
aV12.4
p59
aV12.6
p60
aV12/32
p61
aV120
p62
aV120,000
p63
aV129.25
p64
aV129.6
p65
aV129.87
p66
aV13
p67
aV13,433
p68
aV13.35
p69
aV13.8
p70
aV13th
p71
aV14
p72
aV140,000
p73
aV1406.29
p74
aV142.10
p75
aV145
p76
aV15
p77
aV15.92
p78
aV150
p79
aV155
p80
aV15th
p81
aV16
p82
aV160,510
p83
aV17
p84
aV17,500
p85
aV17th
p86
aV18
p87
aV18.819
p88
aV19
p89
aV190
p90
aV190.58
p91
aV1929
p92
aV193
p93
aV1960
p94
aV1960s
p95
aV1963
p96
aV1970s
p97
aV1973
p98
aV1976
p99
aV1979
p100
aV1980s
p101
aV1981
p102
aV1982
p103
aV1983
p104
aV1984
p105
aV1986
p106
aV1987
p107
aV1988
p108
aV1989
p109
aV1990
p110
aV1990s
p111
aV1992
p112
aV1994
p113
aV2
p114
aV2.07
p115
aV2.25
p116
aV2.3
p117
aV2.4
p118
aV2.5
p119
aV20
p120
aV20,000
p121
aV20.7
p122
aV20.71
p123
aV200
p124
aV200,000
p125
aV2000
p126
aV2002
p127
aV2004
p128
aV20th
p129
aV21.7
p130
aV210
p131
aV211.96
p132
aV23
p133
aV23,000
p134
aV23.3
p135
aV23.57
p136
aV24
p137
aV24.3
p138
aV25
p139
aV25.1
p140
aV25.7
p141
aV25/32
p142
aV250
p143
aV251,170,000
p144
aV2569.26
p145
aV26
p146
aV26.3
p147
aV27
p148
aV27/32
p149
aV270
p150
aV28.7
p151
aV29
p152
aV29.8
p153
aV2:07
p154
aV2:30
p155
aV2:45
p156
aV3
p157
aV3.2
p158
aV3.3
p159
aV3.4
p160
aV3.8
p161
aV3.87
p162
aV3/4
p163
aV30
p164
aV300
p165
aV31
p166
aV31.
p167
aV32
p168
aV330
p169
aV339
p170
aV34
p171
aV34,000
p172
aV340
p173
aV3421.29
p174
aV35
p175
aV35.2
p176
aV37
p177
aV37.6
p178
aV375
p179
aV38.2
p180
aV39
p181
aV4
p182
aV4.1
p183
aV4.3
p184
aV4.4
p185
aV4.5
p186
aV4.8
p187
aV40
p188
aV400
p189
aV400,000
p190
aV400th
p191
aV409
p192
aV41.4
p193
aV42
p194
aV42,000
p195
aV425
p196
aV428
p197
aV46
p198
aV47,000
p199
aV475
p200
aV48
p201
aV48,000
p202
aV5
p203
aV5,000
p204
aV5.4
p205
aV5.5
p206
aV5.8
p207
aV50
p208
aV50.5
p209
aV500
p210
aV508
p211
aV52.2
p212
aV540
p213
aV55
p214
aV55,000
p215
aV550
p216
aV56
p217
aV57
p218
aV589
p219
aV59
p220
aV6
p221
aV6.79
p222
aV60
p223
aV60.4
p224
aV61
p225
aV63
p226
aV650
p227
aV66
p228
aV7
p229
aV7.16
p230
aV7.29
p231
aV7.5
p232
aV7.6
p233
aV7.7
p234
aV7.82
p235
aV7/8
p236
aV70,000
p237
aV700,000
p238
aV734,000
p239
aV74.9
p240
aV75
p241
aV750
p242
aV76
p243
aV76,000
p244
aV77
p245
aV78.06
p246
aV79
p247
aV8
p248
aV8.734
p249
aV80
p250
aV800
p251
aV839
p252
aV85,000
p253
aV850,000
p254
aV86,555
p255
aV9
p256
aV9.28
p257
aV9.934
p258
aV90
p259
aV97
p260
aV98
p261
aV999
p262
aV:
p263
aV;
p264
aV?
p265
aVA
p266
aVA.
p267
aVABC
p268
aVAG
p269
aVAGF
p270
aVANC
p271
aVAbbett
p272
aVAbney
p273
aVAccording
p274
aVAccords
p275
aVAct
p276
aVActivity
p277
aVActually
p278
aVAdministration
p279
aVAdvisors
p280
aVAermacchi
p281
aVAeronautical
p282
aVAerospace
p283
aVAffairs
p284
aVAfrica
p285
aVAfrican
p286
aVAfricanist
p287
aVAfter
p288
aVAgency
p289
aVAges
p290
aVAh
p291
aVAides
p292
aVAir
p293
aVAircraft
p294
aVAirlines
p295
aVAirways
p296
aVAlan
p297
aVAlfred
p298
aVAll
p299
aVAllen
p300
aVAlso
p301
aVAlthough
p302
aVAltman
p303
aVAmerica
p304
aVAmerican
p305
aVAmericans
p306
aVAmong
p307
aVAn
p308
aVAnalysts
p309
aVAnd
p310
aVAndreas
p311
aVAndrew
p312
aVAngeles
p313
aVAnglican
p314
aVAnother
p315
aVAntonio
p316
aVAny
p317
aVApple
p318
aVApril
p319
aVAre
p320
aVArea
p321
aVArgentina
p322
aVArguing
p323
aVArizona
p324
aVArlington
p325
aVArmstrong
p326
aVAs
p327
aVAsia
p328
aVAside
p329
aVAspen
p330
aVAssistant
p331
aVAssociation
p332
aVAssuming
p333
aVAssurances
p334
aVAt
p335
aVAthens
p336
aVAtlantic
p337
aVAugust
p338
aVAustralia
p339
aVAustralian
p340
aVAustria
p341
aVAuthority
p342
aVAuto
p343
aVAverage
p344
aVAviation
p345
aVAvions
p346
aVAvmark
p347
aVAxa
p348
aVB.
p349
aVB.A.T
p350
aVBahamas
p351
aVBank
p352
aVBankAmerica
p353
aVBankers
p354
aVBanking
p355
aVBankruptcy
p356
aVBarbara
p357
aVBarnabas
p358
aVBaxley
p359
aVBeach
p360
aVBebear
p361
aVBecause
p362
aVBedminster
p363
aVBeech
p364
aVBeers
p365
aVBefore
p366
aVBeijing
p367
aVBelorussian
p368
aVBesides
p369
aVBeverly
p370
aVBeyond
p371
aVBig
p372
aVBill
p373
aVBlack
p374
aVBloc
p375
aVBloomingdales
p376
aVBoard
p377
aVBoeing
p378
aVBond
p379
aVBonds
p380
aVBonwit
p381
aVBooks
p382
aVBorten
p383
aVBoskin
p384
aVBoston
p385
aVBoth
p386
aVBourse
p387
aVBowery
p388
aVBox
p389
aVBoys
p390
aVBrady
p391
aVBreaking
p392
aVBreeden
p393
aVBreguet
p394
aVBridge
p395
aVBritain
p396
aVBritish
p397
aVBroadcast
p398
aVBroadcasting
p399
aVBrookings
p400
aVBrunswick
p401
aVBudapest
p402
aVBuddha
p403
aVBudget
p404
aVBueky
p405
aVBuilding
p406
aVBulgarian
p407
aVBumpers
p408
aVBurbank
p409
aVBureau
p410
aVBurnham
p411
aVBurt
p412
aVBush
p413
aVBusiness
p414
aVBusinesses
p415
aVBut
p416
aVBuying
p417
aVBy
p418
aVC.
p419
aVC.E.
p420
aVCBS
p421
aVCDT
p422
aVCFTC
p423
aVCPI
p424
aVCSF
p425
aVCadillac
p426
aVCalif
p427
aVCalif.
p428
aVCalifornia
p429
aVCamp
p430
aVCampeau
p431
aVCanada
p432
aVCanadian
p433
aVCandid
p434
aVCapetronic
p435
aVCapital
p436
aVCapitol
p437
aVCar
p438
aVCarleton
p439
aVCarpenter
p440
aVCarry
p441
aVCarter
p442
aVCassim
p443
aVCat
p444
aVCathedral
p445
aVCause
p446
aVCay
p447
aVCentral
p448
aVCentury
p449
aVCessna
p450
aVChairman
p451
aVChandross
p452
aVChapman
p453
aVChapter
p454
aVCharles
p455
aVCheck
p456
aVChevrolet
p457
aVChi
p458
aVChicago
p459
aVChief
p460
aVChina
p461
aVChinese
p462
aVChoice
p463
aVChris
p464
aVChristmas
p465
aVChristopher
p466
aVChrysler
p467
aVChurch
p468
aVCie
p469
aVCie.
p470
aVCiminero
p471
aVCircuit
p472
aVCiticorp
p473
aVCities
p474
aVCity
p475
aVClaiborne
p476
aVClaude
p477
aVClearly
p478
aVClose
p479
aVCo
p480
aVCo-operative
p481
aVCo.
p482
aVCoalition
p483
aVCode
p484
aVColeco
p485
aVColorado
p486
aVColumbia
p487
aVCombined
p488
aVComfort
p489
aVComment
p490
aVCommercial
p491
aVCommission
p492
aVCommittee
p493
aVCommodities
p494
aVCommodity
p495
aVCommon
p496
aVCommunications
p497
aVCommunist
p498
aVCommunity
p499
aVCompanies
p500
aVCompanion
p501
aVCompany
p502
aVCompelled
p503
aVComponents
p504
aVComputer
p505
aVCongratulations
p506
aVCongress
p507
aVCongressional
p508
aVCongressman
p509
aVConreid
p510
aVConsider
p511
aVConsolidated
p512
aVConstantine
p513
aVContinental
p514
aVConvention
p515
aVCorp
p516
aVCorp.
p517
aVCorporate
p518
aVCouncil
p519
aVCourt
p520
aVCranston
p521
aVCreate
p522
aVCredit
p523
aVCrete
p524
aVCrisanti
p525
aVCronkite
p526
aVCross
p527
aVCrucial
p528
aVCube
p529
aVD
p530
aVD.
p531
aVDJIA
p532
aVDLC
p533
aVDai
p534
aVDaily
p535
aVDale
p536
aVDallas
p537
aVDan
p538
aVDanny
p539
aVDark
p540
aVDarman
p541
aVDassault
p542
aVData
p543
aVDave
p544
aVDavid
p545
aVDay
p546
aVDe
p547
aVDeConcini
p548
aVDeafening
p549
aVDeak
p550
aVDealers
p551
aVDean
p552
aVDearborn
p553
aVDec.
p554
aVDecember
p555
aVDeclan
p556
aVDemocracy
p557
aVDemocrat
p558
aVDemocratic
p559
aVDemocrats
p560
aVDennis
p561
aVDenver
p562
aVDepartment
p563
aVDeposit
p564
aVDespite
p565
aVDetails
p566
aVDetroit
p567
aVDevotees
p568
aVDieppe
p569
aVDirector
p570
aVDismal
p571
aVDistrict
p572
aVDoctrine
p573
aVDodd
p574
aVDollar
p575
aVDomestic
p576
aVDomestically
p577
aVDonald
p578
aVDonaldsonville
p579
aVDorian
p580
aVDouglas
p581
aVDow
p582
aVDrexel
p583
aVDrug
p584
aVDubnow
p585
aVDuring
p586
aVDynamics
p587
aVE.
p588
aVEDT
p589
aVEST
p590
aVEYP
p591
aVEast
p592
aVEastern
p593
aVEconomists
p594
aVEdmund
p595
aVEdward
p596
aVElectric
p597
aVElectronic
p598
aVElements
p599
aVElias
p600
aVElite
p601
aVEmployees
p602
aVEmployment
p603
aVEmporium
p604
aVEncouragement
p605
aVEnd
p606
aVEndangered
p607
aVEnergy
p608
aVEnglund
p609
aVEntering
p610
aVEnterprises
p611
aVEntertainment
p612
aVEnthusiasts
p613
aVEquipment
p614
aVEquitable
p615
aVEslinger
p616
aVEspecially
p617
aVEstablish
p618
aVEthan
p619
aVEthics
p620
aVEuro
p621
aVEuropa
p622
aVEurope
p623
aVEuropean
p624
aVEvaluations
p625
aVEven
p626
aVEvening
p627
aVEvery
p628
aVExactly
p629
aVExchange
p630
aVExports
p631
aVExpress
p632
aVF
p633
aVF.W.
p634
aVFCC
p635
aVFalcon
p636
aVFarentino
p637
aVFarmers
p638
aVFed
p639
aVFederal
p640
aVFew
p641
aVFidelity
p642
aVFighting
p643
aVFin
p644
aVFinance
p645
aVFinancial
p646
aVFinanciere
p647
aVFirm
p648
aVFirst
p649
aVFla.
p650
aVFleet
p651
aVFollowing
p652
aVFood
p653
aVFor
p654
aVForce
p655
aVFord
p656
aVForeign
p657
aVFoster
p658
aVFour
p659
aVFrance
p660
aVFrankly
p661
aVFred
p662
aVFree
p663
aVFreeport
p664
aVFrench
p665
aVFrenchman
p666
aVFreres
p667
aVFriday
p668
aVFriedman
p669
aVFries
p670
aVFull
p671
aVFund
p672
aVFurthermore
p673
aVFutures
p674
aVG.
p675
aVG.m.b
p676
aVGDP
p677
aVGI
p678
aVGM
p679
aVGOP
p680
aVGa
p681
aVGa.
p682
aVGabor
p683
aVGains
p684
aVGallup
p685
aVGary
p686
aVGas
p687
aVGeneral
p688
aVGenerale
p689
aVGenerales
p690
aVGenerally
p691
aVGeorge
p692
aVGermany
p693
aVGeza
p694
aVGiant
p695
aVGinnie
p696
aVGive
p697
aVGlauber
p698
aVGlenn
p699
aVGlobal
p700
aVGoldman
p701
aVGoldsmith
p702
aVGood
p703
aVGovernment
p704
aVGrandparent
p705
aVGrant
p706
aVGreat
p707
aVGreece
p708
aVGreek
p709
aVGreeks
p710
aVGreenspan
p711
aVGroup
p712
aVGruber
p713
aVGuangdong
p714
aVGuber
p715
aVH
p716
aVH.
p717
aVHBO
p718
aVHK$
p719
aVHall
p720
aVHammond
p721
aVHans
p722
aVHarkins
p723
aVHe
p724
aVHealy
p725
aVHellenic
p726
aVHence
p727
aVHenry
p728
aVHill
p729
aVHills
p730
aVHis
p731
aVHodge
p732
aVHodgson
p733
aVHoldings
p734
aVHollywood
p735
aVHolston
p736
aVHoly
p737
aVHome
p738
aVHonda
p739
aVHong
p740
aVHooker
p741
aVHoover
p742
aVHot
p743
aVHouse
p744
aVHousing
p745
aVHouston
p746
aVHow
p747
aVHoward
p748
aVHowever
p749
aVHoylake
p750
aVHu
p751
aVHudson
p752
aVHungarian
p753
aVHungary
p754
aVHuntz
p755
aVHutton
p756
aVI
p757
aVI.
p758
aVII
p759
aVIIGS
p760
aVIII
p761
aVIIcx
p762
aVIchi
p763
aVIf
p764
aVIgnore
p765
aVIken
p766
aVIll
p767
aVIn
p768
aVInc
p769
aVInc.
p770
aVIndeed
p771
aVIndex
p772
aVIndianapolis
p773
aVIndonesia
p774
aVIndustrial
p775
aVIndustrials
p776
aVIndustries
p777
aVInstead
p778
aVInstitute
p779
aVInstitution
p780
aVInstruments
p781
aVInsurance
p782
aVIntegrated
p783
aVIntelligence
p784
aVInterest
p785
aVInternational
p786
aVIntroduced
p787
aVInvestcorp
p788
aVInvestigation
p789
aVInvestment
p790
aVInvestments
p791
aVInvestors
p792
aVIronically
p793
aVIrvine
p794
aVIs
p795
aVIt
p796
aVItaly
p797
aVIts
p798
aVJ.
p799
aVJ.B.
p800
aVJack
p801
aVJames
p802
aVJan.
p803
aVJanuary
p804
aVJapan
p805
aVJapanese
p806
aVJoanna
p807
aVJohn
p808
aVJohnson
p809
aVJon
p810
aVJones
p811
aVJournal
p812
aVJr.
p813
aVJudge
p814
aVJudging
p815
aVJuly
p816
aVJune
p817
aVJunk
p818
aVJustice
p819
aVJustin
p820
aVKLM
p821
aVKader
p822
aVKangyo
p823
aVKanska
p824
aVKaye
p825
aVKazakh
p826
aVKeating
p827
aVKelly
p828
aVKemper
p829
aVKennedy
p830
aVKenneth
p831
aVKing
p832
aVKirghiz
p833
aVKlerk
p834
aVKong
p835
aVKoskotas
p836
aVKremlin
p837
aVKwan
p838
aVKysor
p839
aVL.
p840
aVL.P.
p841
aVLa.
p842
aVLabor
p843
aVLambert
p844
aVLast
p845
aVLater
p846
aVLausanne
p847
aVLazard
p848
aVLeadership
p849
aVLearning
p850
aVLeasing
p851
aVLeft
p852
aVLehman
p853
aVLeinberger
p854
aVLeonard
p855
aVLet
p856
aVLevy
p857
aVLewis
p858
aVLexington
p859
aVLexus
p860
aVLiberal
p861
aVLiberty
p862
aVLight
p863
aVLike
p864
aVLilley
p865
aVLimited
p866
aVLin
p867
aVLincoln
p868
aVLines
p869
aVLittle
p870
aVLloyd
p871
aVLoan
p872
aVLockheed
p873
aVLomas
p874
aVLondon
p875
aVLongman
p876
aVLonski
p877
aVLook
p878
aVLord
p879
aVLos
p880
aVLowenstein
p881
aVLtd
p882
aVLtd.
p883
aVLusaka
p884
aVLutsenko
p885
aVLynch
p886
aVLyonnais
p887
aVLyons
p888
aVLyster
p889
aVMB
p890
aVMCA
p891
aVMGM
p892
aVMMI
p893
aVMMS
p894
aVMOVED
p895
aVMacintosh
p896
aVMade
p897
aVMae
p898
aVMaffei
p899
aVMajor
p900
aVMake
p901
aVMalaysia
p902
aVMandela
p903
aVManhattan
p904
aVManuel
p905
aVManufacturers
p906
aVMany
p907
aVMarcel
p908
aVMarch
p909
aVMaria
p910
aVMarietta
p911
aVMarket
p912
aVMarkets
p913
aVMarkey
p914
aVMartin
p915
aVMarysville
p916
aVMass.
p917
aVMatchbox
p918
aVMatsushita
p919
aVMattress
p920
aVMax
p921
aVMaxwell
p922
aVMay
p923
aVMcCain
p924
aVMcCarthy
p925
aVMcCurdy
p926
aVMcGraw
p927
aVMcLoughlin
p928
aVMcMoRan
p929
aVMcNamara
p930
aVMean
p931
aVMeantime
p932
aVMeanwhile
p933
aVMedical
p934
aVMerc
p935
aVMercantile
p936
aVMerrill
p937
aVMetropolitan
p938
aVMich
p939
aVMichael
p940
aVMichelle
p941
aVMichigan
p942
aVMickey
p943
aVMiddle
p944
aVMidi
p945
aVMikulski
p946
aVMilitary
p947
aVMind
p948
aVMinella
p949
aVMines
p950
aVMineworkers
p951
aVMinister
p952
aVMinistry
p953
aVMinnesota
p954
aVMirage
p955
aVMissouri
p956
aVMitsotakis
p957
aVMixte
p958
aVMlangeni
p959
aVMohammed
p960
aVMokaba
p961
aVMonastery
p962
aVMonday
p963
aVMonitor
p964
aVMonths
p965
aVMoody
p966
aVMoonlighting
p967
aVMoore
p968
aVMore
p969
aVMortgage
p970
aVMortimer
p971
aVMoscow
p972
aVMost
p973
aVMotion
p974
aVMotor
p975
aVMotors
p976
aVMotsoaledi
p977
aVMouse
p978
aVMr.
p979
aVMs.
p980
aVMulford
p981
aVMulhouse
p982
aVMullins
p983
aVMunich
p984
aVMunicipal
p985
aVMurdoch
p986
aVMutant
p987
aVMy
p988
aVN.J.
p989
aVNATO
p990
aVNAV:22.15
p991
aVNBC
p992
aVNYSE
p993
aVNagykanizsa
p994
aVNational
p995
aVNaturally
p996
aVNature
p997
aVNavigation
p998
aVNavy
p999
aVNedelya
p1000
aVNegotiations
p1001
aVNelson
p1002
aVNetwork
p1003
aVNevertheless
p1004
aVNew
p1005
aVNewport
p1006
aVNews
p1007
aVNewsreel
p1008
aVNewsstands
p1009
aVNewsweek
p1010
aVNext
p1011
aVNicholas
p1012
aVNika
p1013
aVNikolai
p1014
aVNinja
p1015
aVNintendo
p1016
aVNo.
p1017
aVNobody
p1018
aVNon-residential
p1019
aVNonetheless
p1020
aVNoonan
p1021
aVNorfolk
p1022
aVNorstar
p1023
aVNorth
p1024
aVNot
p1025
aVNov.
p1026
aVNovember
p1027
aVNow
p1028
aVNunn
p1029
aVNyiregyhaza
p1030
aVOFFICIALS
p1031
aVOK
p1032
aVOKing
p1033
aVOberstar
p1034
aVObserver
p1035
aVOct.
p1036
aVOctober
p1037
aVOf
p1038
aVOff
p1039
aVOffice
p1040
aVOhio
p1041
aVOkla.
p1042
aVOliver
p1043
aVOlympia
p1044
aVOn
p1045
aVOnce
p1046
aVOne
p1047
aVOnly
p1048
aVOpposed
p1049
aVOpposition
p1050
aVOr
p1051
aVOrthodox
p1052
aVOther
p1053
aVOur
p1054
aVOut
p1055
aVOver
p1056
aVOverall
p1057
aVOwn
p1058
aVPASOK
p1059
aVPLC
p1060
aVPPI
p1061
aVPact
p1062
aVPaid
p1063
aVPalestinian
p1064
aVPan
p1065
aVPanama
p1066
aVPapandreou
p1067
aVParamount
p1068
aVParibas
p1069
aVParis
p1070
aVParliament
p1071
aVPart
p1072
aVPartners
p1073
aVPartnership
p1074
aVParty
p1075
aVPaul
p1076
aVPell
p1077
aVPenniman
p1078
aVPentagon
p1079
aVPeople
p1080
aVPercentage
p1081
aVPerfecta
p1082
aVPerhaps
p1083
aVPet
p1084
aVPeter
p1085
aVPeters
p1086
aVPetrolane
p1087
aVPeugeot
p1088
aVPhiladelphia
p1089
aVPhilip
p1090
aVPhilippines
p1091
aVPhysicians
p1092
aVPicture
p1093
aVPictures
p1094
aVPlaymates
p1095
aVPlus
p1096
aVPo
p1097
aVPoints
p1098
aVPoland
p1099
aVPolicy
p1100
aVPoll
p1101
aVPolls
p1102
aVPoor
p1103
aVPorsche
p1104
aVPortugal
p1105
aVPost
p1106
aVPostal
p1107
aVPresident
p1108
aVPretoria
p1109
aVPrevious
p1110
aVPrices
p1111
aVPrime
p1112
aVPrivately
p1113
aVProducts
p1114
aVProgress
p1115
aVProposals
p1116
aVProspects
p1117
aVPublic
p1118
aVQintex
p1119
aVR.
p1120
aVRadio
p1121
aVRamirez
p1122
aVRand
p1123
aVRashid
p1124
aVRate
p1125
aVRather
p1126
aVRaymond
p1127
aVRaytheon
p1128
aVReaders
p1129
aVReagan
p1130
aVRecalls
p1131
aVRecognition
p1132
aVRecovery
p1133
aVRecreation
p1134
aVReedy
p1135
aVRehnquist
p1136
aVRep.
p1137
aVReplied
p1138
aVReport
p1139
aVRequire
p1140
aVResearch
p1141
aVReserve
p1142
aVResolution
p1143
aVResorts
p1144
aVResource
p1145
aVResources
p1146
aVRetired
p1147
aVReview
p1148
aVReynolds
p1149
aVRichard
p1150
aVRichardson
p1151
aVRiegle
p1152
aVRobert
p1153
aVRoe
p1154
aVRoger
p1155
aVRolf
p1156
aVRollin
p1157
aVRonald
p1158
aVRosenblatt
p1159
aVRostenkowski
p1160
aVRubik
p1161
aVRuby
p1162
aVRules
p1163
aVRupert
p1164
aVRussian
p1165
aVRustin
p1166
aVS&Ls
p1167
aVS&P
p1168
aVS.
p1169
aVS.A.
p1170
aVS.p
p1171
aVSE
p1172
aVSEC
p1173
aVSaatchi
p1174
aVSachs
p1175
aVSalem
p1176
aVSales
p1177
aVSaloojee
p1178
aVSam
p1179
aVSass
p1180
aVSavings
p1181
aVSavoca
p1182
aVSaxon
p1183
aVSays
p1184
aVSecretary
p1185
aVSecurities
p1186
aVSeeking
p1187
aVSen.
p1188
aVSenate
p1189
aVSenior
p1190
aVSens.
p1191
aVSeparately
p1192
aVSept.
p1193
aVSeptember
p1194
aVSequa
p1195
aVService
p1196
aVServices
p1197
aVSeveral
p1198
aVShane
p1199
aVShe
p1200
aVShearson
p1201
aVShing
p1202
aVShop
p1203
aVShort
p1204
aVShould
p1205
aVSidecar
p1206
aVSiemens
p1207
aVSik
p1208
aVSikes
p1209
aVSimilar
p1210
aVSimon
p1211
aVSimultaneously
p1212
aVSince
p1213
aVSir
p1214
aVSisulu
p1215
aVSix
p1216
aVSizwe
p1217
aVSkinner
p1218
aVSkokie
p1219
aVSmall
p1220
aVSo
p1221
aVSocialist
p1222
aVSociete
p1223
aVSolicitor
p1224
aVSome
p1225
aVSony
p1226
aVSouth
p1227
aVSoutheast
p1228
aVSouthern
p1229
aVSouthland
p1230
aVSouthmark
p1231
aVSoviet
p1232
aVSoweto
p1233
aVSpain
p1234
aVSpeaker
p1235
aVSpecies
p1236
aVSpecifically
p1237
aVSporkin
p1238
aVSports
p1239
aVSprings
p1240
aVSprizzo
p1241
aVStandard
p1242
aVStanford
p1243
aVStanley
p1244
aVStarr
p1245
aVState
p1246
aVStatements
p1247
aVStatistical
p1248
aVStatistics
p1249
aVSteven
p1250
aVStill
p1251
aVStock
p1252
aVStocks
p1253
aVStreet
p1254
aVStrictly
p1255
aVStriking
p1256
aVStudio
p1257
aVStudios
p1258
aVStunned
p1259
aVSuch
p1260
aVSugarman
p1261
aVSullivan
p1262
aVSunday
p1263
aVSunshine
p1264
aVSupreme
p1265
aVSurprisingly
p1266
aVSyndication
p1267
aVSystem
p1268
aVSystems
p1269
aVSzabad
p1270
aVSzanton
p1271
aVSzocs
p1272
aVT
p1273
aVT.
p1274
aVT34C
p1275
aVTV
p1276
aVTVA
p1277
aVTW
p1278
aVTaffner
p1279
aVTaiwan
p1280
aVTampa
p1281
aVTask
p1282
aVTechnical
p1283
aVTeenage
p1284
aVTelecommunications
p1285
aVTelevision
p1286
aVTeller
p1287
aVTennessee
p1288
aVTexas
p1289
aVThailand
p1290
aVThames
p1291
aVThat
p1292
aVThatcherian
p1293
aVThe
p1294
aVTheir
p1295
aVThen
p1296
aVThere
p1297
aVThese
p1298
aVThey
p1299
aVThings
p1300
aVThis
p1301
aVThomson
p1302
aVThose
p1303
aVThough
p1304
aVThree
p1305
aVThrough
p1306
aVThursday
p1307
aVThus
p1308
aVTime
p1309
aVTimes
p1310
aVTing
p1311
aVTo
p1312
aVToday
p1313
aVTokyo
p1314
aVTom
p1315
aVTommy
p1316
aVToo
p1317
aVTories
p1318
aVTotals
p1319
aVToy
p1320
aVToyota
p1321
aVToys
p1322
aVTrade
p1323
aVTraders
p1324
aVTrading
p1325
aVTransfer
p1326
aVTranslated
p1327
aVTransportation
p1328
aVTreasury
p1329
aVTreasurys
p1330
aVTrexler
p1331
aVTrinitron
p1332
aVTrinity
p1333
aVTrouble
p1334
aVTrust
p1335
aVTsuruo
p1336
aVTurned
p1337
aVTurner
p1338
aVTurtles
p1339
aVTwo
p1340
aVU.N.
p1341
aVU.S.
p1342
aVU.S.based
p1343
aVUA
p1344
aVUAL
p1345
aVUS$
p1346
aVUmkhonto
p1347
aVUncle
p1348
aVUnder
p1349
aVUnderclass
p1350
aVUndersecretary
p1351
aVUnify
p1352
aVUnion
p1353
aVUnited
p1354
aVUniversity
p1355
aVUnlimited
p1356
aVUranium
p1357
aVUspensky
p1358
aVVISTA
p1359
aVVa.
p1360
aVVacancy
p1361
aVValenti
p1362
aVValley
p1363
aVVarese
p1364
aVVarious
p1365
aVVice
p1366
aVViews
p1367
aVVisa
p1368
aVVoice
p1369
aVVolume
p1370
aVVolunteer
p1371
aVVoss
p1372
aVW.
p1373
aVWade
p1374
aVWah
p1375
aVWalkman
p1376
aVWall
p1377
aVWalter
p1378
aVWan
p1379
aVWar
p1380
aVWarner
p1381
aVWarsaw
p1382
aVWashington
p1383
aVWay
p1384
aVWe
p1385
aVWednesday
p1386
aVWeek
p1387
aVWell
p1388
aVWertheimer
p1389
aVWest
p1390
aVWestern
p1391
aVWhat
p1392
aVWhatever
p1393
aVWhen
p1394
aVWhere
p1395
aVWhile
p1396
aVWhite
p1397
aVWho
p1398
aVWhy
p1399
aVWide
p1400
aVWilber
p1401
aVWill
p1402
aVWilliam
p1403
aVWilson
p1404
aVWink
p1405
aVWith
p1406
aVWithout
p1407
aVWitter
p1408
aVWonder
p1409
aVWorking
p1410
aVWorks
p1411
aVWorld
p1412
aVWorlds
p1413
aVWorries
p1414
aVWorse
p1415
aVWould
p1416
aVWright
p1417
aVXerox
p1418
aVYES
p1419
aVYale
p1420
aVYamaguchi
p1421
aVYank
p1422
aVYeh
p1423
aVYes
p1424
aVYet
p1425
aVYork
p1426
aVYou
p1427
aVYoung
p1428
aVYouth
p1429
aVYuppily
p1430
aVZambia
p1431
aVZealand
p1432
aVZsa
p1433
aVZuckerman
p1434
aV`
p1435
aV``
p1436
aVa
p1437
aVa.m.
p1438
aVabandon
p1439
aVabating
p1440
aVability
p1441
aVable
p1442
aVaboard
p1443
aVabomination
p1444
aVabortion
p1445
aVabortions
p1446
aVabout
p1447
aVabove
p1448
aVabroad
p1449
aVabruptly
p1450
aVabsolute
p1451
aVabsolutely
p1452
aVabsorb
p1453
aVabsorbed
p1454
aVabstract
p1455
aVaccelerated
p1456
aVaccept
p1457
aVaccepting
p1458
aVaccess
p1459
aVaccompanied
p1460
aVaccord
p1461
aVaccording
p1462
aVaccount
p1463
aVaccounts
p1464
aVaccurate
p1465
aVaccused
p1466
aVaccuser
p1467
aVaccusers
p1468
aVaccusing
p1469
aVachieve
p1470
aVachieved
p1471
aVacknowledged
p1472
aVacquire
p1473
aVacquiring
p1474
aVacquisition
p1475
aVacross
p1476
aVact
p1477
aVacted
p1478
aVacting
p1479
aVaction
p1480
aVactions
p1481
aVactive
p1482
aVactivist
p1483
aVactivists
p1484
aVactivity
p1485
aVactor
p1486
aVactual
p1487
aVactually
p1488
aVad
p1489
aVadamant
p1490
aVadapted
p1491
aVadd
p1492
aVadded
p1493
aVadding
p1494
aVaddition
p1495
aVadditional
p1496
aVadditions
p1497
aVaddress
p1498
aVadds
p1499
aVadjusted
p1500
aVadjustment
p1501
aVadjustments
p1502
aVadministered
p1503
aVadministration
p1504
aVadmirable
p1505
aVadmired
p1506
aVadmit
p1507
aVadopt
p1508
aVadopted
p1509
aVadopting
p1510
aVads
p1511
aVadult
p1512
aVadults
p1513
aVadvances
p1514
aVadvantage
p1515
aVadvertisements
p1516
aVadvertising
p1517
aVadvisers
p1518
aVadvisory
p1519
aVadvocates
p1520
aVaffair
p1521
aVaffairs
p1522
aVaffect
p1523
aVaffected
p1524
aVaffiliates
p1525
aVaffinity
p1526
aVafflict
p1527
aVafloat
p1528
aVafter
p1529
aVaftermath
p1530
aVafternoon
p1531
aVagain
p1532
aVagainst
p1533
aVagencies
p1534
aVagency
p1535
aVagenda
p1536
aVagent
p1537
aVages
p1538
aVaggravate
p1539
aVaggressive
p1540
aVaging
p1541
aVagitation
p1542
aVago
p1543
aVagree
p1544
aVagreed
p1545
aVagreement
p1546
aVahead
p1547
aVaid
p1548
aVailing
p1549
aVaim
p1550
aVaimed
p1551
aVair
p1552
aVaircraft
p1553
aVaired
p1554
aVairline
p1555
aVairlines
p1556
aVairplanes
p1557
aVairport
p1558
aVairwaves
p1559
aValarming
p1560
aValike
p1561
aValive
p1562
aVall
p1563
aVallegation
p1564
aVallegations
p1565
aValleged
p1566
aValleging
p1567
aVallies
p1568
aVallow
p1569
aVallowed
p1570
aVallowing
p1571
aVallows
p1572
aValmost
p1573
aValone
p1574
aValong
p1575
aValready
p1576
aValso
p1577
aValter
p1578
aValtering
p1579
aValternative
p1580
aValthough
p1581
aVam
p1582
aVamazing
p1583
aVamend
p1584
aVamended
p1585
aVamid
p1586
aVamong
p1587
aVamount
p1588
aVamounted
p1589
aVamounts
p1590
aVample
p1591
aVan
p1592
aVanalysis
p1593
aVanalysts
p1594
aVanalyzed
p1595
aVand
p1596
aVanew
p1597
aVangry
p1598
aVanniversary
p1599
aVannounce
p1600
aVannounced
p1601
aVannouncement
p1602
aVannouncements
p1603
aVannual
p1604
aVannually
p1605
aVanomalies
p1606
aVanonymity
p1607
aVanother
p1608
aVanswered
p1609
aVanswers
p1610
aVantecedents
p1611
aVantelope
p1612
aVanti-airline
p1613
aVanti-apartheid
p1614
aVanti-government
p1615
aVanti-racketeering
p1616
aVanti-takeover
p1617
aVanticipate
p1618
aVanticipated
p1619
aVanticipating
p1620
aVanticipation
p1621
aVantique
p1622
aVanxiety
p1623
aVanxious
p1624
aVany
p1625
aVanything
p1626
aVanytime
p1627
aVanywhere
p1628
aVapartheid
p1629
aVapartments
p1630
aVapparently
p1631
aVappeal
p1632
aVappealing
p1633
aVappear
p1634
aVappearance
p1635
aVappeared
p1636
aVappears
p1637
aVappease
p1638
aVapplied
p1639
aVappointed
p1640
aVappropriate
p1641
aVapproval
p1642
aVapprove
p1643
aVapproximately
p1644
aVarchaic
p1645
aVare
p1646
aVarea
p1647
aVareas
p1648
aVarguably
p1649
aVargue
p1650
aVargued
p1651
aVargument
p1652
aVarguments
p1653
aVarise
p1654
aVarising
p1655
aVarm
p1656
aVarmed
p1657
aVarms
p1658
aVaroma
p1659
aVaround
p1660
aVarranged
p1661
aVarray
p1662
aVarrested
p1663
aVarticle
p1664
aVarticles
p1665
aVas
p1666
aVaside
p1667
aVask
p1668
aVasked
p1669
aVasking
p1670
aVaspersion
p1671
aVassault
p1672
aVassembled
p1673
aVassembly
p1674
aVassertions
p1675
aVasserts
p1676
aVasset
p1677
aVassets
p1678
aVassist
p1679
aVassistance
p1680
aVassisted
p1681
aVassisting
p1682
aVassociates
p1683
aVassociation
p1684
aVassociations
p1685
aVassorted
p1686
aVassume
p1687
aVassumption
p1688
aVassurances
p1689
aVat
p1690
aVatop
p1691
aVattached
p1692
aVattempt
p1693
aVattempted
p1694
aVattempting
p1695
aVattend
p1696
aVattention
p1697
aVattitude
p1698
aVattorney
p1699
aVattract
p1700
aVattributes
p1701
aVaudiences
p1702
aVaudio
p1703
aVauditors
p1704
aVausterity
p1705
aVauthority
p1706
aVauthorized
p1707
aVauto
p1708
aVautocratic
p1709
aVautomakers
p1710
aVautomatically
p1711
aVavailable
p1712
aVaverage
p1713
aVaviation
p1714
aVavoid
p1715
aVavoiding
p1716
aVawaited
p1717
aVawaits
p1718
aVaware
p1719
aVawash
p1720
aVaway
p1721
aVb
p1722
aVbaby
p1723
aVback
p1724
aVbacked
p1725
aVbackers
p1726
aVbackflips
p1727
aVbacking
p1728
aVbad
p1729
aVbailout
p1730
aVbalance
p1731
aVbalanced
p1732
aVban
p1733
aVbandwagon
p1734
aVbank
p1735
aVbanker
p1736
aVbankers
p1737
aVbanking
p1738
aVbankruptcy
p1739
aVbanks
p1740
aVbanner
p1741
aVbanning
p1742
aVbarely
p1743
aVbargained
p1744
aVbargains
p1745
aVbarnacles
p1746
aVbarracks
p1747
aVbarred
p1748
aVbarriers
p1749
aVbars
p1750
aVbase
p1751
aVbased
p1752
aVbases
p1753
aVbasic
p1754
aVbasis
p1755
aVbasket
p1756
aVbattered
p1757
aVbatteries
p1758
aVbattle
p1759
aVbe
p1760
aVbear
p1761
aVbearish
p1762
aVbears
p1763
aVbeat
p1764
aVbecame
p1765
aVbecause
p1766
aVbecome
p1767
aVbecomes
p1768
aVbecoming
p1769
aVbedpans
p1770
aVbeef
p1771
aVbeen
p1772
aVbeer
p1773
aVbefore
p1774
aVbegan
p1775
aVbegin
p1776
aVbeginning
p1777
aVbegins
p1778
aVbegun
p1779
aVbehalf
p1780
aVbehavior
p1781
aVbehaviors
p1782
aVbehest
p1783
aVbehind
p1784
aVbeing
p1785
aVbelatedly
p1786
aVbelief
p1787
aVbelieve
p1788
aVbelieved
p1789
aVbelieves
p1790
aVbelow
p1791
aVbeltway
p1792
aVbenchmark
p1793
aVbend
p1794
aVbeneath
p1795
aVbenefited
p1796
aVbenefits
p1797
aVbest
p1798
aVbetrayed
p1799
aVbetter
p1800
aVbetween
p1801
aVbeverage
p1802
aVbickered
p1803
aVbid
p1804
aVbidding
p1805
aVbids
p1806
aVbig
p1807
aVbigger
p1808
aVbiggest
p1809
aVbilateral
p1810
aVbill
p1811
aVbillings
p1812
aVbillion
p1813
aVbillions
p1814
aVbills
p1815
aVbinges
p1816
aVbiotechnology
p1817
aVbirth
p1818
aVbit
p1819
aVbitter
p1820
aVbitterly
p1821
aVblabs
p1822
aVblack
p1823
aVblacks
p1824
aVblame
p1825
aVblank
p1826
aVbleak
p1827
aVbleeding
p1828
aVblend
p1829
aVblock
p1830
aVblocked
p1831
aVblocking
p1832
aVblow
p1833
aVblue
p1834
aVboard
p1835
aVbody
p1836
aVbolder
p1837
aVbomb
p1838
aVbombing
p1839
aVbonanza
p1840
aVbond
p1841
aVbonds
p1842
aVbook
p1843
aVboom
p1844
aVborder
p1845
aVborders
p1846
aVbored
p1847
aVboring
p1848
aVborn
p1849
aVborrowed
p1850
aVborrowing
p1851
aVboth
p1852
aVbottle
p1853
aVbought
p1854
aVbounce
p1855
aVbout
p1856
aVboys
p1857
aVbrainchild
p1858
aVbrave
p1859
aVbreadth
p1860
aVbreak
p1861
aVbreakdown
p1862
aVbreaker
p1863
aVbreakers
p1864
aVbreaking
p1865
aVbreakthrough
p1866
aVbreather
p1867
aVbribed
p1868
aVbribes
p1869
aVbridging
p1870
aVbrief
p1871
aVbriefed
p1872
aVbright
p1873
aVbrightly
p1874
aVbringing
p1875
aVbrings
p1876
aVbroadcast
p1877
aVbroadcasting
p1878
aVbroadcasts
p1879
aVbroaden
p1880
aVbroke
p1881
aVbroken
p1882
aVbroker
p1883
aVbrokerage
p1884
aVbrokering
p1885
aVbroth
p1886
aVbrought
p1887
aVbubbling
p1888
aVbudge
p1889
aVbudged
p1890
aVbudget
p1891
aVbudgets
p1892
aVbuild
p1893
aVbuilding
p1894
aVbuildings
p1895
aVbuilds
p1896
aVbuilt
p1897
aVbull
p1898
aVbumble
p1899
aVbuoy
p1900
aVburden
p1901
aVbureau
p1902
aVburner
p1903
aVbusiness
p1904
aVbusinesses
p1905
aVbusinessman
p1906
aVbusy
p1907
aVbut
p1908
aVbuttons
p1909
aVbuttress
p1910
aVbuy
p1911
aVbuyer
p1912
aVbuyers
p1913
aVbuying
p1914
aVbuzzing
p1915
aVbuzzword
p1916
aVby
p1917
aVc
p1918
aVca
p1919
aVcabinet
p1920
aVcable
p1921
aVcalamity
p1922
aVcalculation
p1923
aVcalculations
p1924
aVcalendar
p1925
aVcall
p1926
aVcalled
p1927
aVcalling
p1928
aVcalls
p1929
aVcame
p1930
aVcampaign
p1931
aVcampaigns
p1932
aVcan
p1933
aVcanary
p1934
aVcanceled
p1935
aVcandidate
p1936
aVcans
p1937
aVcapacity
p1938
aVcapital
p1939
aVcapitalist
p1940
aVcapitalized
p1941
aVcaps
p1942
aVcar
p1943
aVcarcass
p1944
aVcard
p1945
aVcardiac
p1946
aVcards
p1947
aVcare
p1948
aVcareer
p1949
aVcareers
p1950
aVcarefully
p1951
aVcarried
p1952
aVcarrier
p1953
aVcarries
p1954
aVcars
p1955
aVcarve
p1956
aVcase
p1957
aVcases
p1958
aVcash
p1959
aVcassette
p1960
aVcast
p1961
aVcasting
p1962
aVcasualty
p1963
aVcatalyst
p1964
aVcatches
p1965
aVcatching
p1966
aVcategory
p1967
aVcatharsis
p1968
aVcaught
p1969
aVcause
p1970
aVcaused
p1971
aVcausing
p1972
aVcelebrate
p1973
aVcell
p1974
aVcement
p1975
aVcenter
p1976
aVcenters
p1977
aVcentimeter
p1978
aVcentral
p1979
aVcentrist
p1980
aVcents
p1981
aVcentury
p1982
aVcertain
p1983
aVcertainly
p1984
aVcessation
p1985
aVchain
p1986
aVchair
p1987
aVchairman
p1988
aVchairmen
p1989
aVchairs
p1990
aVchallenge
p1991
aVchallengeable
p1992
aVchance
p1993
aVchances
p1994
aVchange
p1995
aVchanged
p1996
aVchanges
p1997
aVchanging
p1998
aVchannel
p1999
aVchants
p2000
aVcharacter
p2001
aVcharacters
p2002
aVcharge
p2003
aVcharged
p2004
aVcharges
p2005
aVcharity
p2006
aVchastened
p2007
aVcheap
p2008
aVcheaper
p2009
aVcheaply
p2010
aVcheckpoints
p2011
aVchefs
p2012
aVchief
p2013
aVchildren
p2014
aVchip
p2015
aVchips
p2016
aVchoice
p2017
aVchose
p2018
aVchosen
p2019
aVchums
p2020
aVchunk
p2021
aVchurch
p2022
aVcircuit
p2023
aVcirculation
p2024
aVcircumstances
p2025
aVcircumstantial
p2026
aVcite
p2027
aVcited
p2028
aVcities
p2029
aVciting
p2030
aVcitizen
p2031
aVcitizens
p2032
aVcitizenship
p2033
aVcivic
p2034
aVcivil
p2035
aVclaims
p2036
aVclarity
p2037
aVclass
p2038
aVclasses
p2039
aVclassic
p2040
aVclean
p2041
aVcleaner
p2042
aVclear
p2043
aVclearing
p2044
aVclearly
p2045
aVclimate
p2046
aVclimbed
p2047
aVclinching
p2048
aVclinics
p2049
aVclock
p2050
aVclose
p2051
aVclosed
p2052
aVclosely
p2053
aVclosest
p2054
aVclosing
p2055
aVclothes
p2056
aVclout
p2057
aVco-author
p2058
aVco-head
p2059
aVco-sponsored
p2060
aVcoal
p2061
aVcoalition
p2062
aVcoercion
p2063
aVcoffers
p2064
aVcognoscenti
p2065
aVcoherence
p2066
aVcold
p2067
aVcollaborating
p2068
aVcollapse
p2069
aVcollapsed
p2070
aVcolleagues
p2071
aVcollection
p2072
aVcollectors
p2073
aVcollege
p2074
aVcolleges
p2075
aVcolony
p2076
aVcolor
p2077
aVcolored
p2078
aVcolorful
p2079
aVcolors
p2080
aVcombat
p2081
aVcombination
p2082
aVcombined
p2083
aVcome
p2084
aVcomedies
p2085
aVcomedy
p2086
aVcomes
p2087
aVcomforting
p2088
aVcomic
p2089
aVcoming
p2090
aVcommander
p2091
aVcomment
p2092
aVcommentary
p2093
aVcommercial
p2094
aVcommissioners
p2095
aVcommit
p2096
aVcommitment
p2097
aVcommitments
p2098
aVcommittee
p2099
aVcommodities
p2100
aVcommon
p2101
aVcommonly
p2102
aVcommunications
p2103
aVcommunist
p2104
aVcommunists
p2105
aVcommunity
p2106
aVcommuting
p2107
aVcompanies
p2108
aVcompany
p2109
aVcomparable
p2110
aVcomparably
p2111
aVcompared
p2112
aVcompelling
p2113
aVcompete
p2114
aVcompeting
p2115
aVcompetition
p2116
aVcompetitive
p2117
aVcompetitor
p2118
aVcomplain
p2119
aVcomplained
p2120
aVcomplaining
p2121
aVcomplete
p2122
aVcompleted
p2123
aVcompletely
p2124
aVcomplex
p2125
aVcomplicity
p2126
aVcompound
p2127
aVcompromise
p2128
aVcompromised
p2129
aVcompulsion
p2130
aVcompulsory
p2131
aVcomputer
p2132
aVcomputerized
p2133
aVcomputers
p2134
aVcomrades
p2135
aVconceded
p2136
aVconceived
p2137
aVconcentrated
p2138
aVconcept
p2139
aVconcern
p2140
aVconcerned
p2141
aVconcerning
p2142
aVconcert
p2143
aVconcessions
p2144
aVconcluded
p2145
aVconcluding
p2146
aVcondemning
p2147
aVcondition
p2148
aVconditions
p2149
aVconduct
p2150
aVconferees
p2151
aVconference
p2152
aVconferring
p2153
aVconfessed
p2154
aVconfidence
p2155
aVconfident
p2156
aVconform
p2157
aVconfusion
p2158
aVcongressional
p2159
aVconnected
p2160
aVconnector
p2161
aVconscious
p2162
aVconsecutive
p2163
aVconsensus
p2164
aVconsent
p2165
aVconservation
p2166
aVconservative
p2167
aVconservatives
p2168
aVconsider
p2169
aVconsiderable
p2170
aVconsidered
p2171
aVconsistent
p2172
aVconspicuously
p2173
aVconspiracy
p2174
aVconstantly
p2175
aVconstituent
p2176
aVconstitution
p2177
aVconstitutional
p2178
aVconstruction
p2179
aVconsultant
p2180
aVconsultations
p2181
aVconsulting
p2182
aVconsume
p2183
aVconsumer
p2184
aVconsumers
p2185
aVcontact
p2186
aVcontacted
p2187
aVcontacts
p2188
aVcontagious
p2189
aVcontain
p2190
aVcontains
p2191
aVcontended
p2192
aVcontends
p2193
aVcontent
p2194
aVcontext
p2195
aVcontinue
p2196
aVcontinued
p2197
aVcontinues
p2198
aVcontinuing
p2199
aVcontract
p2200
aVcontracts
p2201
aVcontrary
p2202
aVcontrast
p2203
aVcontrasts
p2204
aVcontribute
p2205
aVcontributed
p2206
aVcontributing
p2207
aVcontributions
p2208
aVcontrol
p2209
aVcontrolled
p2210
aVcontrols
p2211
aVcontroversial
p2212
aVconvenience
p2213
aVconvention
p2214
aVconversations
p2215
aVconverted
p2216
aVconvictions
p2217
aVconvincing
p2218
aVconvolutions
p2219
aVcooked
p2220
aVcooks
p2221
aVcooperate
p2222
aVcooperation
p2223
aVcooperatively
p2224
aVcopies
p2225
aVcore
p2226
aVcorners
p2227
aVcorporate
p2228
aVcorporates
p2229
aVcorporation
p2230
aVcorporations
p2231
aVcorps
p2232
aVcorrespondent
p2233
aVcorrespondents
p2234
aVcorruption
p2235
aVcost
p2236
aVcosting
p2237
aVcostly
p2238
aVcosts
p2239
aVcould
p2240
aVcouncils
p2241
aVcounsel
p2242
aVcount
p2243
aVcounted
p2244
aVcounter-cyclical
p2245
aVcounterparts
p2246
aVcounters
p2247
aVcounting
p2248
aVcountries
p2249
aVcountry
p2250
aVcountryside
p2251
aVcouple
p2252
aVcoupon
p2253
aVcourse
p2254
aVcourt
p2255
aVcourtrooms
p2256
aVcourts
p2257
aVcousin
p2258
aVcover
p2259
aVcovering
p2260
aVcpu
p2261
aVcracks
p2262
aVcraft
p2263
aVcrash
p2264
aVcreamed
p2265
aVcreate
p2266
aVcreated
p2267
aVcreating
p2268
aVcredibility
p2269
aVcredit
p2270
aVcreditor
p2271
aVcreditors
p2272
aVcrew
p2273
aVcrime
p2274
aVcriminal
p2275
aVcrises
p2276
aVcrisis
p2277
aVcritic
p2278
aVcritical
p2279
aVcriticism
p2280
aVcriticized
p2281
aVcross-market
p2282
aVcross-section
p2283
aVcrowd
p2284
aVcrowned
p2285
aVcrucial
p2286
aVcry
p2287
aVcuisine
p2288
aVcured
p2289
aVcuring
p2290
aVcurrent
p2291
aVcurrently
p2292
aVcurtailed
p2293
aVcurtains
p2294
aVcustomer
p2295
aVcustomers
p2296
aVcustoms
p2297
aVcut
p2298
aVcute
p2299
aVcuts
p2300
aVcycle
p2301
aVcycles
p2302
aVczars
p2303
aVd
p2304
aVdaily
p2305
aVdamage
p2306
aVdamages
p2307
aVdanger
p2308
aVdangerously
p2309
aVdapper
p2310
aVdata
p2311
aVday
p2312
aVdays
p2313
aVde
p2314
aVdeadlock
p2315
aVdeal
p2316
aVdealer
p2317
aVdealers
p2318
aVdealings
p2319
aVdeals
p2320
aVdebacle
p2321
aVdebate
p2322
aVdebates
p2323
aVdebilitating
p2324
aVdebt
p2325
aVdecade
p2326
aVdecades
p2327
aVdecent
p2328
aVdeceptive
p2329
aVdecide
p2330
aVdecided
p2331
aVdecision
p2332
aVdecisions
p2333
aVdecline
p2334
aVdeclined
p2335
aVdeclines
p2336
aVdeclining
p2337
aVdecrying
p2338
aVdeductions
p2339
aVdeep
p2340
aVdeeper
p2341
aVdeepest
p2342
aVdeeply
p2343
aVdefault
p2344
aVdefaulted
p2345
aVdefaults
p2346
aVdefeated
p2347
aVdefects
p2348
aVdefendants
p2349
aVdefense
p2350
aVdeferred
p2351
aVdeferring
p2352
aVdefiantly
p2353
aVdeficit
p2354
aVdefinitely
p2355
aVdefrauding
p2356
aVdelays
p2357
aVdeliveries
p2358
aVdelivering
p2359
aVdelivery
p2360
aVdemand
p2361
aVdemanded
p2362
aVdemonstration
p2363
aVdenied
p2364
aVdenies
p2365
aVdenounced
p2366
aVdeny
p2367
aVdepartment
p2368
aVdepartments
p2369
aVdepend
p2370
aVdependence
p2371
aVdependent
p2372
aVdepending
p2373
aVdepiction
p2374
aVdeposit
p2375
aVdepositors
p2376
aVdepress
p2377
aVdepressed
p2378
aVdepression
p2379
aVdepth
p2380
aVdeputy
p2381
aVderegulation
p2382
aVderivative
p2383
aVdeserted
p2384
aVdesigned
p2385
aVdesigner
p2386
aVdesirable
p2387
aVdesktop
p2388
aVdespite
p2389
aVdestructive
p2390
aVdetail
p2391
aVdetailed
p2392
aVdetails
p2393
aVdetective
p2394
aVdeterioration
p2395
aVdetermine
p2396
aVdeveloped
p2397
aVdeveloping
p2398
aVdevelopment
p2399
aVdevelopments
p2400
aVdevised
p2401
aVdevoid
p2402
aVdevoted
p2403
aVdevotees
p2404
aVdiagnostic
p2405
aVdialects
p2406
aVdiamond
p2407
aVdiaper
p2408
aVdid
p2409
aVdie
p2410
aVdiet
p2411
aVdiffer
p2412
aVdifference
p2413
aVdifferences
p2414
aVdifferent
p2415
aVdifficult
p2416
aVdifficulties
p2417
aVdigging
p2418
aVdiluted
p2419
aVdiminished
p2420
aVdipped
p2421
aVdirect
p2422
aVdirected
p2423
aVdirectly
p2424
aVdirector
p2425
aVdirectory
p2426
aVdisadvantage
p2427
aVdisaffected
p2428
aVdisappear
p2429
aVdisappeared
p2430
aVdisarmament
p2431
aVdisaster
p2432
aVdiscipline
p2433
aVdisciplined
p2434
aVdisclosed
p2435
aVdisclosure
p2436
aVdisclosures
p2437
aVdiscourse
p2438
aVdiscovered
p2439
aVdiscredit
p2440
aVdiscreetly
p2441
aVdiscuss
p2442
aVdiscussed
p2443
aVdiscussion
p2444
aVdiscussions
p2445
aVdisease
p2446
aVdish
p2447
aVdisillusionment
p2448
aVdisk
p2449
aVdismissed
p2450
aVdisplayed
p2451
aVdisposed
p2452
aVdispute
p2453
aVdisputed
p2454
aVdisrupted
p2455
aVdistinctive
p2456
aVdistinctly
p2457
aVdistracting
p2458
aVdistressed
p2459
aVdive
p2460
aVdiversified
p2461
aVdiversifying
p2462
aVdiverted
p2463
aVdivide
p2464
aVdivided
p2465
aVdividend
p2466
aVdividends
p2467
aVdivision
p2468
aVdivisions
p2469
aVdo
p2470
aVdoctors
p2471
aVdoes
p2472
aVdoing
p2473
aVdollar
p2474
aVdollars
p2475
aVdomestic
p2476
aVdomestically
p2477
aVdominance
p2478
aVdominated
p2479
aVdonated
p2480
aVdonations
p2481
aVdone
p2482
aVdoom
p2483
aVdoor
p2484
aVdoors
p2485
aVdouble
p2486
aVdoubtful
p2487
aVdoubts
p2488
aVdown
p2489
aVdowngrades
p2490
aVdownturn
p2491
aVdozens
p2492
aVdrachmas
p2493
aVdraft
p2494
aVdragged
p2495
aVdrain
p2496
aVdraw
p2497
aVdress
p2498
aVdried
p2499
aVdrilled
p2500
aVdrive
p2501
aVdriven
p2502
aVdrives
p2503
aVdriving
p2504
aVdrop
p2505
aVdropped
p2506
aVdropping
p2507
aVdrops
p2508
aVdrugstore
p2509
aVdrumbeat
p2510
aVdue
p2511
aVdues
p2512
aVdump
p2513
aVdumps
p2514
aVdune
p2515
aVdupes
p2516
aVduplicate
p2517
aVduring
p2518
aVduty
p2519
aVdwarf
p2520
aVe
p2521
aVeach
p2522
aVeager
p2523
aVearlier
p2524
aVearly
p2525
aVearned
p2526
aVearnings
p2527
aVease
p2528
aVeasier
p2529
aVeasily
p2530
aVeasing
p2531
aVeast
p2532
aVeastern
p2533
aVeasy
p2534
aVeccentric
p2535
aVechoing
p2536
aVeconomic
p2537
aVeconomically
p2538
aVeconomies
p2539
aVeconomist
p2540
aVeconomists
p2541
aVeconomy
p2542
aVeditor
p2543
aVeditorial
p2544
aVeducation
p2545
aVeducational
p2546
aVeerie
p2547
aVeffect
p2548
aVeffectively
p2549
aVeffects
p2550
aVeffort
p2551
aVefforts
p2552
aVeggs
p2553
aVeight
p2554
aVeither
p2555
aVelaborate
p2556
aVelders
p2557
aVelection
p2558
aVelections
p2559
aVelectricity
p2560
aVelectro
p2561
aVelectronic
p2562
aVelectronics
p2563
aVeliminate
p2564
aVeliminated
p2565
aVelse
p2566
aVeluding
p2567
aVembezzler
p2568
aVemerged
p2569
aVemergency
p2570
aVemotion
p2571
aVemphasize
p2572
aVempire
p2573
aVemployed
p2574
aVemployee
p2575
aVemployees
p2576
aVemployers
p2577
aVemploying
p2578
aVemployment
p2579
aVempty
p2580
aVemptying
p2581
aVenact
p2582
aVencircling
p2583
aVencourage
p2584
aVencouraged
p2585
aVencouragement
p2586
aVencourages
p2587
aVend
p2588
aVendangered
p2589
aVended
p2590
aVending
p2591
aVendless
p2592
aVendorsed
p2593
aVendow
p2594
aVenemy
p2595
aVenergy
p2596
aVenforcement
p2597
aVengine
p2598
aVengines
p2599
aVengorgement
p2600
aVenjoy
p2601
aVenlarged
p2602
aVenormous
p2603
aVenough
p2604
aVenrolled
p2605
aVenrollees
p2606
aVentangled
p2607
aVenter
p2608
aVentered
p2609
aVenterprise
p2610
aVenterprises
p2611
aVenthusiastic
p2612
aVenticed
p2613
aVentirely
p2614
aVenvironment
p2615
aVenvisaged
p2616
aVepisode
p2617
aVepisodes
p2618
aVequal
p2619
aVequaling
p2620
aVequipment
p2621
aVequipped
p2622
aVequities
p2623
aVequity
p2624
aVequivalent
p2625
aVera
p2626
aVerratic
p2627
aVespecially
p2628
aVessence
p2629
aVestablished
p2630
aVestablishing
p2631
aVestablishment
p2632
aVestate
p2633
aVestimate
p2634
aVestimated
p2635
aVestimates
p2636
aVethics
p2637
aVevaluate
p2638
aVevaluated
p2639
aVeven
p2640
aVevening
p2641
aVevent
p2642
aVevents
p2643
aVeventually
p2644
aVever
p2645
aVevery
p2646
aVeverybody
p2647
aVeveryone
p2648
aVeverything
p2649
aVevidence
p2650
aVevident
p2651
aVevil
p2652
aVevokes
p2653
aVex
p2654
aVex-member
p2655
aVexacerbate
p2656
aVexact
p2657
aVexactly
p2658
aVexamine
p2659
aVexample
p2660
aVexceed
p2661
aVexcept
p2662
aVexcess
p2663
aVexchange
p2664
aVexchanges
p2665
aVexcite
p2666
aVexcludes
p2667
aVexclusively
p2668
aVexecute
p2669
aVexecutive
p2670
aVexecutives
p2671
aVexempt
p2672
aVexert
p2673
aVexhausted
p2674
aVexhibit
p2675
aVexhort
p2676
aVexistance
p2677
aVexistence
p2678
aVexisting
p2679
aVexists
p2680
aVexonerated
p2681
aVexorbitant
p2682
aVexotic
p2683
aVexpand
p2684
aVexpanding
p2685
aVexpansionism
p2686
aVexpect
p2687
aVexpectations
p2688
aVexpected
p2689
aVexpecting
p2690
aVexpects
p2691
aVexpenditures
p2692
aVexpense
p2693
aVexpenses
p2694
aVexpensive
p2695
aVexperience
p2696
aVexperienced
p2697
aVexpertise
p2698
aVexperts
p2699
aVexpired
p2700
aVexplanation
p2701
aVexplicitly
p2702
aVexplodes
p2703
aVexplosion
p2704
aVexport
p2705
aVexports
p2706
aVexpressed
p2707
aVextended
p2708
aVextension
p2709
aVextensive
p2710
aVextent
p2711
aVexternal
p2712
aVextradition
p2713
aVeyed
p2714
aVeying
p2715
aVf
p2716
aVface
p2717
aVfaced
p2718
aVfaces
p2719
aVfacilities
p2720
aVfacility
p2721
aVfacing
p2722
aVfact
p2723
aVfacto
p2724
aVfactor
p2725
aVfactories
p2726
aVfactory
p2727
aVfade
p2728
aVfailed
p2729
aVfails
p2730
aVfair
p2731
aVfairly
p2732
aVfairs
p2733
aVfall
p2734
aVfallen
p2735
aVfaltering
p2736
aVfalters
p2737
aVfamilies
p2738
aVfamily
p2739
aVfamous
p2740
aVfar
p2741
aVfares
p2742
aVfarming
p2743
aVfast
p2744
aVfaster
p2745
aVfastest
p2746
aVfather
p2747
aVfavor
p2748
aVfear
p2749
aVfeared
p2750
aVfeaturing
p2751
aVfederal
p2752
aVfederally
p2753
aVfee
p2754
aVfeel
p2755
aVfeeling
p2756
aVfeels
p2757
aVfees
p2758
aVfell
p2759
aVfellow
p2760
aVfend
p2761
aVfending
p2762
aVfew
p2763
aVfiasco
p2764
aVfictional
p2765
aVfifth
p2766
aVfight
p2767
aVfighting
p2768
aVfigure
p2769
aVfigured
p2770
aVfigures
p2771
aVfiguring
p2772
aVfile
p2773
aVfiled
p2774
aVfiling
p2775
aVfilings
p2776
aVfilms
p2777
aVfin
p2778
aVfinal
p2779
aVfinally
p2780
aVfinance
p2781
aVfinanced
p2782
aVfinancial
p2783
aVfinancially
p2784
aVfinancing
p2785
aVfinancings
p2786
aVfind
p2787
aVfine
p2788
aVfined
p2789
aVfinger
p2790
aVfingers
p2791
aVfire
p2792
aVfired
p2793
aVfires
p2794
aVfirm
p2795
aVfirms
p2796
aVfirst
p2797
aVfiscal
p2798
aVfists
p2799
aVfive
p2800
aVfixed
p2801
aVflag
p2802
aVflags
p2803
aVflamboyant
p2804
aVflare
p2805
aVflat
p2806
aVflatness
p2807
aVflatten
p2808
aVflattening
p2809
aVfled
p2810
aVfledging
p2811
aVfleet
p2812
aVflew
p2813
aVflexibility
p2814
aVflies
p2815
aVflight
p2816
aVflog
p2817
aVfloor
p2818
aVflow
p2819
aVfly
p2820
aVflying
p2821
aVfocus
p2822
aVfocused
p2823
aVfocuses
p2824
aVfocusing
p2825
aVfogged
p2826
aVfoil
p2827
aVfoiled
p2828
aVfollow
p2829
aVfollowed
p2830
aVfollowers
p2831
aVfollowing
p2832
aVfollows
p2833
aVfood
p2834
aVfoods
p2835
aVfoot
p2836
aVfor
p2837
aVforce
p2838
aVforced
p2839
aVforceful
p2840
aVforecast
p2841
aVforecasts
p2842
aVforeign
p2843
aVforest
p2844
aVforever
p2845
aVforgetting
p2846
aVforgotten
p2847
aVform
p2848
aVformally
p2849
aVformat
p2850
aVformed
p2851
aVformer
p2852
aVformula
p2853
aVforthright
p2854
aVfortunes
p2855
aVforward
p2856
aVfought
p2857
aVfound
p2858
aVfoundation
p2859
aVfounded
p2860
aVfounding
p2861
aVfour
p2862
aVfourth
p2863
aVfraction
p2864
aVfrancs
p2865
aVfrantically
p2866
aVfraud
p2867
aVfree
p2868
aVfreed
p2869
aVfreedom
p2870
aVfreeing
p2871
aVfreely
p2872
aVfreeze
p2873
aVfreezes
p2874
aVfrequencies
p2875
aVfrequency
p2876
aVfrequent
p2877
aVfrequently
p2878
aVfriend
p2879
aVfriends
p2880
aVfriendship
p2881
aVfrigate
p2882
aVfrom
p2883
aVfront
p2884
aVfronts
p2885
aVfrozen
p2886
aVfrustrating
p2887
aVfrustration
p2888
aVfulfilling
p2889
aVfull
p2890
aVfully
p2891
aVfund
p2892
aVfundamental
p2893
aVfunded
p2894
aVfunding
p2895
aVfunds
p2896
aVfunneled
p2897
aVfurnished
p2898
aVfurniture
p2899
aVfurther
p2900
aVfusillade
p2901
aVfutile
p2902
aVfuture
p2903
aVfutures
p2904
aVg
p2905
aVgain
p2906
aVgained
p2907
aVgaining
p2908
aVgains
p2909
aVgambling
p2910
aVgame
p2911
aVgames
p2912
aVgap
p2913
aVgarbage
p2914
aVgarnered
p2915
aVgate
p2916
aVgather
p2917
aVgathered
p2918
aVgave
p2919
aVgearing
p2920
aVgeneral
p2921
aVgeneralized
p2922
aVgenerally
p2923
aVgenerated
p2924
aVgenerating
p2925
aVgeneration
p2926
aVgenius
p2927
aVgenuine
p2928
aVget
p2929
aVgets
p2930
aVgetting
p2931
aVgifts
p2932
aVgirl
p2933
aVgist
p2934
aVgive
p2935
aVgiven
p2936
aVgives
p2937
aVgiving
p2938
aVglamour
p2939
aVglaringly
p2940
aVglasnost
p2941
aVglobe
p2942
aVglop
p2943
aVgo
p2944
aVgoal
p2945
aVgoing
p2946
aVgold
p2947
aVgone
p2948
aVgood
p2949
aVgoods
p2950
aVgospel
p2951
aVgossip
p2952
aVgossipy
p2953
aVgot
p2954
aVgovern
p2955
aVgoverning
p2956
aVgovernment
p2957
aVgovernments
p2958
aVgovernor
p2959
aVgovernors
p2960
aVgrabbing
p2961
aVgrade
p2962
aVgradually
p2963
aVgraduates
p2964
aVgraduation
p2965
aVgrand
p2966
aVgrant
p2967
aVgrants
p2968
aVgrass
p2969
aVgratuities
p2970
aVgray
p2971
aVgraying
p2972
aVgreat
p2973
aVgreater
p2974
aVgreen
p2975
aVgrew
p2976
aVgridlock
p2977
aVgrim
p2978
aVgrind
p2979
aVgross
p2980
aVgrossly
p2981
aVground
p2982
aVgroup
p2983
aVgroups
p2984
aVgrow
p2985
aVgrowing
p2986
aVgrown
p2987
aVgrowth
p2988
aVguard
p2989
aVguarded
p2990
aVguided
p2991
aVguilty
p2992
aVhackles
p2993
aVhad
p2994
aVhagglings
p2995
aVhair
p2996
aVhalf
p2997
aVhalt
p2998
aVhalted
p2999
aVhalting
p3000
aVhalts
p3001
aVhammer
p3002
aVhammered
p3003
aVhamper
p3004
aVhamstring
p3005
aVhand
p3006
aVhandle
p3007
aVhands
p3008
aVhang
p3009
aVhappen
p3010
aVhappened
p3011
aVhappenings
p3012
aVhappy
p3013
aVhard
p3014
aVharder
p3015
aVhardest
p3016
aVharnessing
p3017
aVharshest
p3018
aVhas
p3019
aVhave
p3020
aVhaving
p3021
aVhe
p3022
aVhead
p3023
aVheaded
p3024
aVheadquarters
p3025
aVheads
p3026
aVhealth
p3027
aVhealthy
p3028
aVhear
p3029
aVhears
p3030
aVheavily
p3031
aVheavy
p3032
aVhectic
p3033
aVhefty
p3034
aVheightened
p3035
aVheld
p3036
aVhell
p3037
aVhelp
p3038
aVhelped
p3039
aVher
p3040
aVherald
p3041
aVherd
p3042
aVhere
p3043
aVhidden
p3044
aVhigh
p3045
aVhigher
p3046
aVhighest
p3047
aVhighly
p3048
aVhill
p3049
aVhim
p3050
aVhimself
p3051
aVhire
p3052
aVhired
p3053
aVhis
p3054
aVhistorical
p3055
aVhit
p3056
aVhitch
p3057
aVhoisted
p3058
aVhold
p3059
aVholders
p3060
aVholding
p3061
aVholdings
p3062
aVholiday
p3063
aVhome
p3064
aVhomes
p3065
aVhonor
p3066
aVhope
p3067
aVhoped
p3068
aVhopeful
p3069
aVhopes
p3070
aVhoping
p3071
aVhorn
p3072
aVhospitable
p3073
aVhospitals
p3074
aVhost
p3075
aVhostile
p3076
aVhot
p3077
aVhotel
p3078
aVhour
p3079
aVhours
p3080
aVhouse
p3081
aVhouses
p3082
aVhousing
p3083
aVhow
p3084
aVhowever
p3085
aVhuge
p3086
aVhuman
p3087
aVhundred
p3088
aVhundreds
p3089
aVhung
p3090
aVhunt
p3091
aVhurries
p3092
aVhurt
p3093
aVhype
p3094
aVhysteria
p3095
aVidea
p3096
aVideal
p3097
aVidealistic
p3098
aVidentical
p3099
aVidentified
p3100
aVideological
p3101
aVideology
p3102
aVif
p3103
aVignition
p3104
aVill
p3105
aVillegal
p3106
aVillegally
p3107
aVillegitimate
p3108
aVillustrate
p3109
aVillustrated
p3110
aVimagination
p3111
aVimaging
p3112
aVimbalances
p3113
aVimmediate
p3114
aVimmediately
p3115
aVimmigration
p3116
aVimpact
p3117
aVimpacted
p3118
aVimperialism
p3119
aVimperialists
p3120
aVimplemented
p3121
aVimplicated
p3122
aVimplications
p3123
aVimplies
p3124
aVimport
p3125
aVimportance
p3126
aVimportant
p3127
aVimported
p3128
aVimports
p3129
aVimposed
p3130
aVimposing
p3131
aVimpossible
p3132
aVimprisonment
p3133
aVimprobable
p3134
aVimproper
p3135
aVimprove
p3136
aVimproved
p3137
aVimprovement
p3138
aVimproves
p3139
aVimproving
p3140
aVin
p3141
aVinability
p3142
aVinaccurate
p3143
aVincentive
p3144
aVincentives
p3145
aVinched
p3146
aVinclude
p3147
aVincluded
p3148
aVincluding
p3149
aVincome
p3150
aVinconsiderable
p3151
aVincorporated
p3152
aVincorrect
p3153
aVincrease
p3154
aVincreased
p3155
aVincreases
p3156
aVincreasing
p3157
aVincreasingly
p3158
aVincurred
p3159
aVincurring
p3160
aVindeed
p3161
aVindependent
p3162
aVindex
p3163
aVindexes
p3164
aVindication
p3165
aVindications
p3166
aVindicative
p3167
aVindicators
p3168
aVindicted
p3169
aVindividual
p3170
aVindividuals
p3171
aVindustrial
p3172
aVindustrialists
p3173
aVindustrialization
p3174
aVindustrials
p3175
aVindustries
p3176
aVindustry
p3177
aVineptitude
p3178
aVinequities
p3179
aVinfecting
p3180
aVinfiltrated
p3181
aVinflates
p3182
aVinflation
p3183
aVinfluence
p3184
aVinfluenced
p3185
aVinfluencing
p3186
aVinfluenza
p3187
aVinflux
p3188
aVinform
p3189
aVinformation
p3190
aVinformed
p3191
aVinfrastructure
p3192
aVinfringement
p3193
aVingredients
p3194
aVinitial
p3195
aVinitially
p3196
aVinitiative
p3197
aVinject
p3198
aVinjection
p3199
aVinnocent
p3200
aVinnocently
p3201
aVinnovative
p3202
aVinquiry
p3203
aVinside
p3204
aVinsider
p3205
aVinsisted
p3206
aVinsisting
p3207
aVinsists
p3208
aVinsolvency
p3209
aVinsolvent
p3210
aVinspired
p3211
aVinstall
p3212
aVinstance
p3213
aVinstead
p3214
aVinstinct
p3215
aVinstinctive
p3216
aVinstitute
p3217
aVinstitutions
p3218
aVinstructed
p3219
aVinstruments
p3220
aVinsurance
p3221
aVinsured
p3222
aVinsurer
p3223
aVintegration
p3224
aVintellectual
p3225
aVintelligence
p3226
aVintend
p3227
aVintended
p3228
aVintense
p3229
aVintensifying
p3230
aVinterceded
p3231
aVinterest
p3232
aVinterested
p3233
aVinteresting
p3234
aVinterests
p3235
aVinterim
p3236
aVinternal
p3237
aVinternational
p3238
aVinterrupting
p3239
aVinterruption
p3240
aVintersperses
p3241
aVintervened
p3242
aVinterventionists
p3243
aVinterview
p3244
aVinterviewed
p3245
aVinterviewing
p3246
aVintimidation
p3247
aVinto
p3248
aVintroduced
p3249
aVinvade
p3250
aVinvest
p3251
aVinvestigate
p3252
aVinvestigated
p3253
aVinvestigation
p3254
aVinvestment
p3255
aVinvestments
p3256
aVinvestor
p3257
aVinvestors
p3258
aVinvolve
p3259
aVinvolved
p3260
aVinvolvement
p3261
aVinvolves
p3262
aVinvolving
p3263
aViota
p3264
aVirony
p3265
aVirregular
p3266
aVis
p3267
aVissue
p3268
aVissued
p3269
aVissuer
p3270
aVissues
p3271
aVit
p3272
aVits
p3273
aVitself
p3274
aVjail
p3275
aVjailed
p3276
aVjammed
p3277
aVjamming
p3278
aVjet
p3279
aVjinks
p3280
aVjitters
p3281
aVjittery
p3282
aVjob
p3283
aVjobs
p3284
aVjoin
p3285
aVjoining
p3286
aVjoint
p3287
aVjolt
p3288
aVjournalists
p3289
aVjudge
p3290
aVjuice
p3291
aVjump
p3292
aVjumped
p3293
aVjunior
p3294
aVjunk
p3295
aVjurisdiction
p3296
aVjust
p3297
aVjustice
p3298
aVjustices
p3299
aVjustification
p3300
aVjustify
p3301
aVkeep
p3302
aVkeeping
p3303
aVkelp
p3304
aVkept
p3305
aVkettle
p3306
aVkey
p3307
aVkick
p3308
aVkickbacks
p3309
aVkicked
p3310
aVkids
p3311
aVkilled
p3312
aVkilling
p3313
aVkind
p3314
aVkinds
p3315
aVknee
p3316
aVknit
p3317
aVknocked
p3318
aVknow
p3319
aVknowledge
p3320
aVknowledgeable
p3321
aVknown
p3322
aVla
p3323
aVlabel
p3324
aVlabor
p3325
aVlaboratory
p3326
aVlack
p3327
aVlacks
p3328
aVladies
p3329
aVlagged
p3330
aVlags
p3331
aVlaid
p3332
aVlament
p3333
aVlaminated
p3334
aVlance
p3335
aVland
p3336
aVlands
p3337
aVlapses
p3338
aVlarge
p3339
aVlargely
p3340
aVlarger
p3341
aVlargest
p3342
aVlash
p3343
aVlast
p3344
aVlate
p3345
aVlater
p3346
aVlatest
p3347
aVlaunch
p3348
aVlaunched
p3349
aVlaunches
p3350
aVlaundromat
p3351
aVlavishly
p3352
aVlaw
p3353
aVlawmakers
p3354
aVlaws
p3355
aVlawsuit
p3356
aVlawyer
p3357
aVlead
p3358
aVleader
p3359
aVleaders
p3360
aVleadership
p3361
aVleading
p3362
aVleads
p3363
aVleague
p3364
aVlearn
p3365
aVlease
p3366
aVleases
p3367
aVleasing
p3368
aVleast
p3369
aVleave
p3370
aVleaving
p3371
aVled
p3372
aVleeway
p3373
aVleft
p3374
aVleftist
p3375
aVleftovers
p3376
aVlegal
p3377
aVlegislation
p3378
aVlegislative
p3379
aVlegislators
p3380
aVlength
p3381
aVless
p3382
aVlesser
p3383
aVlesson
p3384
aVlet
p3385
aVletter
p3386
aVletters
p3387
aVlevel
p3388
aVlevels
p3389
aVleverage
p3390
aVleveraged
p3391
aVliaison
p3392
aVliberals
p3393
aVliberation
p3394
aVlibertarians
p3395
aVlibrarians
p3396
aVlicense
p3397
aVlife
p3398
aVlift
p3399
aVlifted
p3400
aVlifting
p3401
aVlight
p3402
aVlighten
p3403
aVlighthearted
p3404
aVlike
p3405
aVlikely
p3406
aVlikened
p3407
aVlimit
p3408
aVlimited
p3409
aVlimits
p3410
aVline
p3411
aVlines
p3412
aVlineups
p3413
aVlink
p3414
aVlinked
p3415
aVlions
p3416
aVliquid
p3417
aVliquidity
p3418
aVlisted
p3419
aVlisten
p3420
aVlisteners
p3421
aVlistening
p3422
aVlisting
p3423
aVlitmus
p3424
aVlittle
p3425
aVlive
p3426
aVlived
p3427
aVlivelier
p3428
aVlives
p3429
aVliving
p3430
aVloan
p3431
aVloans
p3432
aVlobby
p3433
aVlobbying
p3434
aVlocal
p3435
aVlocalities
p3436
aVlocation
p3437
aVlock
p3438
aVlong
p3439
aVlonger
p3440
aVlook
p3441
aVlooked
p3442
aVlooking
p3443
aVlooks
p3444
aVloose
p3445
aVlooting
p3446
aVlose
p3447
aVloses
p3448
aVlosing
p3449
aVloss
p3450
aVlosses
p3451
aVlost
p3452
aVlot
p3453
aVlots
p3454
aVlousy
p3455
aVloutish
p3456
aVlovable
p3457
aVlow
p3458
aVlower
p3459
aVlowest
p3460
aVloyalty
p3461
aVlucrative
p3462
aVlunch
p3463
aVluxury
p3464
aVmachinery
p3465
aVmachines
p3466
aVmade
p3467
aVmagazine
p3468
aVmagazines
p3469
aVmagnate
p3470
aVmain
p3471
aVmainly
p3472
aVmaintain
p3473
aVmajor
p3474
aVmajority
p3475
aVmake
p3476
aVmaker
p3477
aVmakers
p3478
aVmakes
p3479
aVmaking
p3480
aVmales
p3481
aVman
p3482
aVmanaged
p3483
aVmanagement
p3484
aVmanager
p3485
aVmanagers
p3486
aVmanages
p3487
aVmanaging
p3488
aVmandate
p3489
aVmandatory
p3490
aVmanifest
p3491
aVmanpower
p3492
aVmanufacture
p3493
aVmanufactured
p3494
aVmanufacturer
p3495
aVmanufacturers
p3496
aVmanufacturing
p3497
aVmany
p3498
aVmapped
p3499
aVmarch
p3500
aVmargin
p3501
aVmargins
p3502
aVmarine
p3503
aVmark
p3504
aVmarket
p3505
aVmarketeers
p3506
aVmarketing
p3507
aVmarketplace
p3508
aVmarketplaces
p3509
aVmarkets
p3510
aVmarks
p3511
aVmarriage
p3512
aVmarried
p3513
aVmarvelously
p3514
aVmassacre
p3515
aVmasses
p3516
aVmassive
p3517
aVmaster
p3518
aVmatch
p3519
aVmatter
p3520
aVmatters
p3521
aVmay
p3522
aVme
p3523
aVmean
p3524
aVmeaning
p3525
aVmeans
p3526
aVmeant
p3527
aVmeantime
p3528
aVmeanwhile
p3529
aVmeasure
p3530
aVmeasures
p3531
aVmechanisms
p3532
aVmedia
p3533
aVmedical
p3534
aVmedium
p3535
aVmeet
p3536
aVmeeting
p3537
aVmeets
p3538
aVmega-hit
p3539
aVmeltdown
p3540
aVmember
p3541
aVmembers
p3542
aVmen
p3543
aVmenial
p3544
aVmention
p3545
aVmenu
p3546
aVmerchandise
p3547
aVmerchant
p3548
aVmerge
p3549
aVmerger
p3550
aVmerit
p3551
aVmerits
p3552
aVmess
p3553
aVmessage
p3554
aVmessengers
p3555
aVmetal
p3556
aVmetalworkers
p3557
aVmetaphor
p3558
aVmetro
p3559
aVmetropolitan
p3560
aVmicrochips
p3561
aVmid-1970s
p3562
aVmid-1980s
p3563
aVmid-1988
p3564
aVmid-1990s
p3565
aVmid-20
p3566
aVmid-June
p3567
aVmid-sized
p3568
aVmidday
p3569
aVmiddle
p3570
aVmidnight
p3571
aVmidst
p3572
aVmight
p3573
aVmilitant
p3574
aVmilitary
p3575
aVmillion
p3576
aVmillions
p3577
aVmind
p3578
aVminded
p3579
aVminerals
p3580
aVminers
p3581
aVmines
p3582
aVminimizing
p3583
aVminimum
p3584
aVminister
p3585
aVministers
p3586
aVminivans
p3587
aVminor
p3588
aVminority
p3589
aVminors
p3590
aVminute
p3591
aVminutes
p3592
aVmiracle
p3593
aVmisadventure
p3594
aVmiscegenation
p3595
aVmischief
p3596
aVmismatch
p3597
aVmisplaced
p3598
aVmiss
p3599
aVmissed
p3600
aVmissile
p3601
aVmission
p3602
aVmistake
p3603
aVmistakes
p3604
aVmix
p3605
aVmixed
p3606
aVmobilized
p3607
aVmodel
p3608
aVmodels
p3609
aVmoderate
p3610
aVmoderates
p3611
aVmodest
p3612
aVmodicum
p3613
aVmoment
p3614
aVmomentum
p3615
aVmoney
p3616
aVmonitor
p3617
aVmonitored
p3618
aVmonitoring
p3619
aVmonopoly
p3620
aVmonth
p3621
aVmonthly
p3622
aVmonths
p3623
aVmood
p3624
aVmop
p3625
aVmoral
p3626
aVmorass
p3627
aVmore
p3628
aVmoreover
p3629
aVmorning
p3630
aVmortgage
p3631
aVmost
p3632
aVmostly
p3633
aVmothballing
p3634
aVmother
p3635
aVmotive
p3636
aVmove
p3637
aVmovement
p3638
aVmoves
p3639
aVmovie
p3640
aVmovies
p3641
aVmoving
p3642
aVmuch
p3643
aVmuck
p3644
aVmultifamily
p3645
aVmultinational
p3646
aVmultiplied
p3647
aVmunicipals
p3648
aVmushroomed
p3649
aVmusic
p3650
aVmusical
p3651
aVmust
p3652
aVmutate
p3653
aVmutual
p3654
aVmy
p3655
aVn't
p3656
aVname
p3657
aVnamed
p3658
aVnarrowing
p3659
aVnation
p3660
aVnational
p3661
aVnations
p3662
aVnationwide
p3663
aVnearby
p3664
aVnearing
p3665
aVnearly
p3666
aVnecessarily
p3667
aVnecessary
p3668
aVneed
p3669
aVneeded
p3670
aVneeds
p3671
aVnegative
p3672
aVnegatively
p3673
aVnegotiate
p3674
aVnegotiated
p3675
aVnegotiations
p3676
aVneither
p3677
aVnervous
p3678
aVnet
p3679
aVnetwork
p3680
aVnetworks
p3681
aVnever
p3682
aVnew
p3683
aVnewly
p3684
aVnews
p3685
aVnewspaper
p3686
aVnewspapers
p3687
aVnewsprint
p3688
aVnext
p3689
aVniche
p3690
aVnight
p3691
aVnine
p3692
aVno
p3693
aVnon-U.S.
p3694
aVnon-answer
p3695
aVnon-insurance
p3696
aVnon-profit
p3697
aVnon-staple
p3698
aVnon-strategic
p3699
aVnone
p3700
aVnor
p3701
aVnormal
p3702
aVnormalcy
p3703
aVnostalgia
p3704
aVnot
p3705
aVnotable
p3706
aVnotably
p3707
aVnoted
p3708
aVnotes
p3709
aVnothing
p3710
aVnotice
p3711
aVnoticed
p3712
aVnotified
p3713
aVnotion
p3714
aVnouvelle
p3715
aVnow
p3716
aVnowadays
p3717
aVnumber
p3718
aVnumbers
p3719
aVnumerous
p3720
aVobjectionable
p3721
aVobjections
p3722
aVobligation
p3723
aVobligations
p3724
aVobligatory
p3725
aVobservation
p3726
aVobserver
p3727
aVobservers
p3728
aVobtain
p3729
aVobtained
p3730
aVoccupation
p3731
aVoccur
p3732
aVoccurred
p3733
aVoccurring
p3734
aVof
p3735
aVoff
p3736
aVoffer
p3737
aVoffered
p3738
aVoffering
p3739
aVoffers
p3740
aVoffice
p3741
aVofficer
p3742
aVofficers
p3743
aVoffices
p3744
aVofficial
p3745
aVofficially
p3746
aVofficials
p3747
aVoffset
p3748
aVoffspring
p3749
aVoften
p3750
aVold
p3751
aVolds
p3752
aVomnibus
p3753
aVon
p3754
aVonce
p3755
aVone
p3756
aVones
p3757
aVonly
p3758
aVopen
p3759
aVopened
p3760
aVopening
p3761
aVopens
p3762
aVoperate
p3763
aVoperated
p3764
aVoperates
p3765
aVoperating
p3766
aVoperation
p3767
aVoperations
p3768
aVoperator
p3769
aVopinions
p3770
aVopponent
p3771
aVopponents
p3772
aVopportunistic
p3773
aVopportunities
p3774
aVopportunity
p3775
aVoppose
p3776
aVopposed
p3777
aVopposition
p3778
aVoptics
p3779
aVoption
p3780
aVoptions
p3781
aVor
p3782
aVorchids
p3783
aVorder
p3784
aVordered
p3785
aVordering
p3786
aVorderly
p3787
aVorders
p3788
aVordinary
p3789
aVorganization
p3790
aVorganizational
p3791
aVorganizations
p3792
aVorganize
p3793
aVorganizing
p3794
aVoriented
p3795
aVoriginally
p3796
aVostensible
p3797
aVother
p3798
aVothers
p3799
aVour
p3800
aVousting
p3801
aVout
p3802
aVoutlawed
p3803
aVoutlined
p3804
aVoutlook
p3805
aVoutput
p3806
aVoutright
p3807
aVouts
p3808
aVoutset
p3809
aVoutside
p3810
aVoutspoken
p3811
aVoutstanding
p3812
aVoutstripped
p3813
aVover
p3814
aVoverall
p3815
aVoverarching
p3816
aVoverbuilt
p3817
aVovercapacity
p3818
aVovercome
p3819
aVoverdue
p3820
aVoverpay
p3821
aVoverreact
p3822
aVoverreacted
p3823
aVoverseas
p3824
aVoversee
p3825
aVoverseeing
p3826
aVoversees
p3827
aVoversight
p3828
aVoverstrained
p3829
aVoversubscribed
p3830
aVovert
p3831
aVoverthrow
p3832
aVowe
p3833
aVown
p3834
aVowned
p3835
aVowner
p3836
aVowners
p3837
aVowning
p3838
aVowns
p3839
aVp.m
p3840
aVp.m.
p3841
aVpace
p3842
aVpachinko
p3843
aVpacked
p3844
aVpact
p3845
aVpage
p3846
aVpages
p3847
aVpaid
p3848
aVpaint
p3849
aVpair
p3850
aVpalatable
p3851
aVpalate
p3852
aVpall
p3853
aVpalm
p3854
aVpanel
p3855
aVpanic
p3856
aVpanicky
p3857
aVpaper
p3858
aVpapers
p3859
aVparakeets
p3860
aVpare
p3861
aVparent
p3862
aVparents
p3863
aVparliamentary
p3864
aVparlor
p3865
aVpart
p3866
aVparte
p3867
aVparticipant
p3868
aVparticipants
p3869
aVparticipate
p3870
aVparticipated
p3871
aVparticipating
p3872
aVparticipation
p3873
aVparticular
p3874
aVparticularly
p3875
aVparties
p3876
aVpartly
p3877
aVpartner
p3878
aVparts
p3879
aVparty
p3880
aVpass
p3881
aVpassable
p3882
aVpassage
p3883
aVpassed
p3884
aVpassionate
p3885
aVpassive
p3886
aVpast
p3887
aVpatriarchate
p3888
aVpatriotic
p3889
aVpatronage
p3890
aVpause
p3891
aVpauses
p3892
aVpay
p3893
aVpaying
p3894
aVpayment
p3895
aVpayments
p3896
aVpeace
p3897
aVpeaceful
p3898
aVpeak
p3899
aVpeaks
p3900
aVpeculiar
p3901
aVpeddle
p3902
aVpence
p3903
aVpeople
p3904
aVper
p3905
aVpercentage
p3906
aVperfect
p3907
aVperfidious
p3908
aVperform
p3909
aVperformance
p3910
aVperforming
p3911
aVperhaps
p3912
aVperiod
p3913
aVpermanent
p3914
aVpermission
p3915
aVpermits
p3916
aVpermitted
p3917
aVpersonal
p3918
aVpersonalities
p3919
aVpersonally
p3920
aVpersonnel
p3921
aVperspective
p3922
aVpervaded
p3923
aVpet
p3924
aVpetrochemical
p3925
aVphone
p3926
aVphoned
p3927
aVphones
p3928
aVpick
p3929
aVpicketing
p3930
aVpickups
p3931
aVpicture
p3932
aVpictures
p3933
aVpiece
p3934
aVpieces
p3935
aVpilot
p3936
aVpilots
p3937
aVpinball
p3938
aVpinched
p3939
aVpiranha
p3940
aVpit
p3941
aVplace
p3942
aVplaced
p3943
aVplaces
p3944
aVplacing
p3945
aVplain
p3946
aVplan
p3947
aVplanned
p3948
aVplanning
p3949
aVplans
p3950
aVplant
p3951
aVplanting
p3952
aVplants
p3953
aVplastic
p3954
aVplatter
p3955
aVplay
p3956
aVplayed
p3957
aVplayers
p3958
aVplaygrounds
p3959
aVplaying
p3960
aVplays
p3961
aVpleasing
p3962
aVpledges
p3963
aVplenty
p3964
aVpliers
p3965
aVplight
p3966
aVplot
p3967
aVplummet
p3968
aVplummeted
p3969
aVplummeting
p3970
aVplunge
p3971
aVplunged
p3972
aVplus
p3973
aVplush
p3974
aVpneumonia
p3975
aVpockets
p3976
aVpoint
p3977
aVpointed
p3978
aVpoints
p3979
aVpoised
p3980
aVpolicies
p3981
aVpolicy
p3982
aVpolitic
p3983
aVpolitical
p3984
aVpolitically
p3985
aVpoliticians
p3986
aVpoliticized
p3987
aVpolitics
p3988
aVpolls
p3989
aVpony
p3990
aVpoor
p3991
aVpoorer
p3992
aVpoorly
p3993
aVpopular
p3994
aVpopulation
p3995
aVpork
p3996
aVporridge
p3997
aVport
p3998
aVportable
p3999
aVportfolio
p4000
aVportion
p4001
aVportions
p4002
aVportrayals
p4003
aVportrayed
p4004
aVpose
p4005
aVposing
p4006
aVposition
p4007
aVpositions
p4008
aVpossibility
p4009
aVpossible
p4010
aVpossibly
p4011
aVpost-World
p4012
aVpost-crash
p4013
aVpost-electoral
p4014
aVpostal
p4015
aVposted
p4016
aVposters
p4017
aVpostpone
p4018
aVpostponed
p4019
aVpot
p4020
aVpotential
p4021
aVpotentially
p4022
aVpounds
p4023
aVpour
p4024
aVpower
p4025
aVpowerboat
p4026
aVpowered
p4027
aVpowerful
p4028
aVpowerless
p4029
aVpractically
p4030
aVpre-trial
p4031
aVprecipitous
p4032
aVpredetermined
p4033
aVpredict
p4034
aVpredictable
p4035
aVprefer
p4036
aVpreferably
p4037
aVpreliminary
p4038
aVpremier
p4039
aVpremiered
p4040
aVpremise
p4041
aVpremises
p4042
aVpremium
p4043
aVpreoccupied
p4044
aVpreparation
p4045
aVprepared
p4046
aVpreparing
p4047
aVprerequisite
p4048
aVpresence
p4049
aVpresent
p4050
aVpresented
p4051
aVpresently
p4052
aVpreserving
p4053
aVpresident
p4054
aVpresidential
p4055
aVpress
p4056
aVpressed
p4057
aVpressing
p4058
aVpressure
p4059
aVpressures
p4060
aVprestigious
p4061
aVpretax
p4062
aVpretty
p4063
aVprevails
p4064
aVprevent
p4065
aVprevented
p4066
aVprevious
p4067
aVpreviously
p4068
aVprey
p4069
aVprice
p4070
aVpriced
p4071
aVprices
p4072
aVpriests
p4073
aVprimarily
p4074
aVprimary
p4075
aVprime
p4076
aVprincipal
p4077
aVprinciple
p4078
aVprinted
p4079
aVprinting
p4080
aVprior
p4081
aVprison
p4082
aVprivate
p4083
aVprivately
p4084
aVprivy
p4085
aVpro-Soviet
p4086
aVprobably
p4087
aVprobe
p4088
aVproblem
p4089
aVproblematic
p4090
aVproblems
p4091
aVprocedural
p4092
aVprocedures
p4093
aVproceedings
p4094
aVproceeds
p4095
aVprocess
p4096
aVprocessing
p4097
aVproclamations
p4098
aVprod
p4099
aVprodding
p4100
aVproduce
p4101
aVproduced
p4102
aVproducer
p4103
aVproducers
p4104
aVproduces
p4105
aVproducing
p4106
aVproduct
p4107
aVproduction
p4108
aVproductive
p4109
aVproducts
p4110
aVprofesses
p4111
aVprofessional
p4112
aVprofessionals
p4113
aVproficient
p4114
aVprofit
p4115
aVprofitable
p4116
aVprofits
p4117
aVprofoundly
p4118
aVprogenitors
p4119
aVprogram
p4120
aVprogramming
p4121
aVprograms
p4122
aVprohibit
p4123
aVproject
p4124
aVprojecting
p4125
aVprojects
p4126
aVprominent
p4127
aVpromise
p4128
aVpromised
p4129
aVpromises
p4130
aVpromote
p4131
aVpromoted
p4132
aVpromoting
p4133
aVpromotion
p4134
aVprompt
p4135
aVprompted
p4136
aVpromptly
p4137
aVproof
p4138
aVpropagandists
p4139
aVproper
p4140
aVproperty
p4141
aVprophecy
p4142
aVproponents
p4143
aVproposal
p4144
aVproposals
p4145
aVpropose
p4146
aVproposed
p4147
aVproposing
p4148
aVpropositions
p4149
aVpropsed
p4150
aVpropulsion
p4151
aVprospective
p4152
aVprospects
p4153
aVprospectus
p4154
aVprosperous
p4155
aVprotect
p4156
aVprotected
p4157
aVprotection
p4158
aVprotests
p4159
aVprototypes
p4160
aVprove
p4161
aVproved
p4162
aVprovide
p4163
aVprovided
p4164
aVprovides
p4165
aVproviding
p4166
aVprovince
p4167
aVprovincial
p4168
aVprovision
p4169
aVprovisions
p4170
aVprovocation
p4171
aVprudent
p4172
aVpseudosocialism
p4173
aVpsychic
p4174
aVpublic
p4175
aVpublication
p4176
aVpublicity
p4177
aVpublicly
p4178
aVpull
p4179
aVpulled
p4180
aVpunky
p4181
aVpurchase
p4182
aVpurchased
p4183
aVpurchases
p4184
aVpurportedly
p4185
aVpurpose
p4186
aVpurposes
p4187
aVpursue
p4188
aVpursued
p4189
aVpush
p4190
aVpushed
p4191
aVpushes
p4192
aVpushing
p4193
aVput
p4194
aVputs
p4195
aVpuzzled
p4196
aVquaint
p4197
aVqualify
p4198
aVquality
p4199
aVquarter
p4200
aVquestion
p4201
aVquestions
p4202
aVquicken
p4203
aVquickly
p4204
aVquid
p4205
aVquiet
p4206
aVquit
p4207
aVquite
p4208
aVquota
p4209
aVquotas
p4210
aVquotations
p4211
aVquoted
p4212
aVquoting
p4213
aVracial
p4214
aVracially
p4215
aVradical
p4216
aVradio
p4217
aVradios
p4218
aVrail
p4219
aVrailroad
p4220
aVraise
p4221
aVraised
p4222
aVraising
p4223
aVraked
p4224
aVrallied
p4225
aVrally
p4226
aVran
p4227
aVrange
p4228
aVranging
p4229
aVranks
p4230
aVrapid
p4231
aVrate
p4232
aVrates
p4233
aVrather
p4234
aVrating
p4235
aVrationale
p4236
aVre-election
p4237
aVre-energized
p4238
aVre-exports
p4239
aVreach
p4240
aVreached
p4241
aVreaching
p4242
aVreacting
p4243
aVreaction
p4244
aVreactivated
p4245
aVread
p4246
aVreading
p4247
aVreadings
p4248
aVreadjustment
p4249
aVready
p4250
aVreal
p4251
aVrealestate
p4252
aVrealize
p4253
aVrealized
p4254
aVrealizing
p4255
aVreally
p4256
aVreason
p4257
aVreasonable
p4258
aVreasonably
p4259
aVreasoned
p4260
aVreasons
p4261
aVrebate
p4262
aVrebates
p4263
aVrebirth
p4264
aVrebound
p4265
aVrebounded
p4266
aVrebounds
p4267
aVrecalls
p4268
aVreceive
p4269
aVreceived
p4270
aVreceives
p4271
aVreceiving
p4272
aVrecent
p4273
aVrecently
p4274
aVrecession
p4275
aVrecipe
p4276
aVrecipient
p4277
aVreckless
p4278
aVrecognizing
p4279
aVrecommendations
p4280
aVrecommended
p4281
aVreconciliation
p4282
aVreconsider
p4283
aVrecord
p4284
aVrecorder
p4285
aVrecording
p4286
aVrecoup
p4287
aVrecovering
p4288
aVrecovery
p4289
aVrecruitment
p4290
aVrectification
p4291
aVrecycling
p4292
aVred
p4293
aVredeemed
p4294
aVredemptions
p4295
aVreduce
p4296
aVreduced
p4297
aVreducing
p4298
aVreduction
p4299
aVrefer
p4300
aVreferring
p4301
aVreflect
p4302
aVreflecting
p4303
aVreflexively
p4304
aVreform
p4305
aVreformers
p4306
aVreforms
p4307
aVrefrigeration
p4308
aVrefugee
p4309
aVrefused
p4310
aVrefusers
p4311
aVregain
p4312
aVregard
p4313
aVregarding
p4314
aVregards
p4315
aVregime
p4316
aVregimentation
p4317
aVregion
p4318
aVregional
p4319
aVregistration
p4320
aVregularly
p4321
aVregulated
p4322
aVregulating
p4323
aVregulation
p4324
aVregulations
p4325
aVregulator
p4326
aVregulators
p4327
aVregulatory
p4328
aVrehabilitated
p4329
aVrehabilitation
p4330
aVreimbursement
p4331
aVreinforce
p4332
aVreject
p4333
aVrelated
p4334
aVrelations
p4335
aVrelative
p4336
aVrelatively
p4337
aVrelease
p4338
aVreleased
p4339
aVreleases
p4340
aVrelentless
p4341
aVreliance
p4342
aVrelief
p4343
aVreligion
p4344
aVreligious
p4345
aVreluctance
p4346
aVremain
p4347
aVremained
p4348
aVremaining
p4349
aVremains
p4350
aVremake
p4351
aVremarked
p4352
aVremarks
p4353
aVremember
p4354
aVremove
p4355
aVremoved
p4356
aVrename
p4357
aVrender
p4358
aVrendered
p4359
aVrenewed
p4360
aVrenewing
p4361
aVreopening
p4362
aVreoriented
p4363
aVrepair
p4364
aVrepairs
p4365
aVrepeat
p4366
aVrepeatedly
p4367
aVreplace
p4368
aVreplaced
p4369
aVreplays
p4370
aVreplied
p4371
aVreport
p4372
aVreported
p4373
aVreporters
p4374
aVreporting
p4375
aVreports
p4376
aVrepresentative
p4377
aVrepresentatives
p4378
aVrepresents
p4379
aVrepressive
p4380
aVreptilian
p4381
aVrepublic
p4382
aVreputation
p4383
aVrequest
p4384
aVrequire
p4385
aVrequired
p4386
aVrequirements
p4387
aVrequires
p4388
aVrequiring
p4389
aVrerun
p4390
aVreruns
p4391
aVrescinding
p4392
aVresearch
p4393
aVresemblances
p4394
aVresemble
p4395
aVresentment
p4396
aVreserve
p4397
aVreserves
p4398
aVreshaped
p4399
aVresidential
p4400
aVresidents
p4401
aVresiding
p4402
aVresignation
p4403
aVresigned
p4404
aVresistance
p4405
aVresisted
p4406
aVresolve
p4407
aVresorts
p4408
aVresources
p4409
aVrespect
p4410
aVrespected
p4411
aVrespectively
p4412
aVresponses
p4413
aVresponsible
p4414
aVrest
p4415
aVrestaurant
p4416
aVrestaurants
p4417
aVrestored
p4418
aVrestrained
p4419
aVrestraints
p4420
aVrestrict
p4421
aVrestricted
p4422
aVrestricting
p4423
aVrestriction
p4424
aVrestrictions
p4425
aVrestructure
p4426
aVrestructuring
p4427
aVrestructurings
p4428
aVresult
p4429
aVresulted
p4430
aVresulting
p4431
aVresults
p4432
aVresurrect
p4433
aVretail
p4434
aVretailer
p4435
aVretailing
p4436
aVretain
p4437
aVretained
p4438
aVretaliation
p4439
aVreticence
p4440
aVretired
p4441
aVreturn
p4442
aVreturned
p4443
aVreunited
p4444
aVrevamp
p4445
aVrevenue
p4446
aVrevenues
p4447
aVreverse
p4448
aVreview
p4449
aVrevised
p4450
aVrevision
p4451
aVrevive
p4452
aVrevived
p4453
aVrewarding
p4454
aVrewards
p4455
aVribbons
p4456
aVriches
p4457
aVrickety
p4458
aVrid
p4459
aVrift
p4460
aVright
p4461
aVrights
p4462
aVrise
p4463
aVrisen
p4464
aVrising
p4465
aVrisk
p4466
aVrival
p4467
aVrivals
p4468
aVrobotic
p4469
aVrobust
p4470
aVrock
p4471
aVrocket
p4472
aVrole
p4473
aVroles
p4474
aVroll
p4475
aVroom
p4476
aVrooms
p4477
aVrose
p4478
aVrotting
p4479
aVroughly
p4480
aVround
p4481
aVrout
p4482
aVroutine
p4483
aVroyalty
p4484
aVrule
p4485
aVruled
p4486
aVrulers
p4487
aVrules
p4488
aVrumors
p4489
aVrun
p4490
aVrunaway
p4491
aVrunning
p4492
aVruns
p4493
aVrush
p4494
aVrushed
p4495
aVsabotage
p4496
aVsacrifice
p4497
aVsafeguards
p4498
aVsafest
p4499
aVsafety
p4500
aVsaid
p4501
aVsalaries
p4502
aVsale
p4503
aVsales
p4504
aVsalesman
p4505
aVsame
p4506
aVsamples
p4507
aVsandwich
p4508
aVsank
p4509
aVsat
p4510
aVsatisfaction
p4511
aVsatisfied
p4512
aVsatisfy
p4513
aVsatisfying
p4514
aVsaves
p4515
aVsaving
p4516
aVsavvy
p4517
aVsaw
p4518
aVsay
p4519
aVsaying
p4520
aVsays
p4521
aVscale
p4522
aVscandal
p4523
aVscandals
p4524
aVscarcely
p4525
aVscared
p4526
aVscarves
p4527
aVscene
p4528
aVscheduled
p4529
aVscheme
p4530
aVscholarship
p4531
aVscholarships
p4532
aVschool
p4533
aVschooling
p4534
aVschools
p4535
aVscience
p4536
aVscope
p4537
aVscreening
p4538
aVscrewball
p4539
aVscript
p4540
aVscuttled
p4541
aVseals
p4542
aVsearching
p4543
aVseason
p4544
aVseasonally
p4545
aVseat
p4546
aVsecond
p4547
aVsecrecy
p4548
aVsecret
p4549
aVsecretary
p4550
aVsector
p4551
aVsecurities
p4552
aVsecurity
p4553
aVsee
p4554
aVseeds
p4555
aVseeing
p4556
aVseek
p4557
aVseeking
p4558
aVseem
p4559
aVseemed
p4560
aVseemingly
p4561
aVseems
p4562
aVseen
p4563
aVsegmentation
p4564
aVsegregation
p4565
aVseized
p4566
aVselective
p4567
aVself
p4568
aVsell
p4569
aVselling
p4570
aVsenator
p4571
aVsenators
p4572
aVsenior
p4573
aVsense
p4574
aVsensible
p4575
aVsensitive
p4576
aVsentenced
p4577
aVseparate
p4578
aVsequel
p4579
aVseries
p4580
aVserious
p4581
aVservants
p4582
aVserve
p4583
aVserved
p4584
aVservice
p4585
aVservices
p4586
aVserving
p4587
aVsession
p4588
aVset
p4589
aVsetback
p4590
aVsetbacks
p4591
aVsetting
p4592
aVsettle
p4593
aVsettled
p4594
aVsettlement
p4595
aVseven
p4596
aVseveral
p4597
aVsevere
p4598
aVseverely
p4599
aVsexes
p4600
aVshaken
p4601
aVshaky
p4602
aVshape
p4603
aVshare
p4604
aVshareholder
p4605
aVshares
p4606
aVsharing
p4607
aVsharp
p4608
aVsharply
p4609
aVshe
p4610
aVshift
p4611
aVshifted
p4612
aVshifts
p4613
aVshirts
p4614
aVshoestring
p4615
aVshook
p4616
aVshootings
p4617
aVshop
p4618
aVshopping
p4619
aVshort
p4620
aVshortly
p4621
aVshot
p4622
aVshould
p4623
aVshouted
p4624
aVshow
p4625
aVshowed
p4626
aVshowing
p4627
aVshown
p4628
aVshows
p4629
aVshuffle
p4630
aVshutdown
p4631
aVside
p4632
aVsidelined
p4633
aVsides
p4634
aVsidestep
p4635
aVsign
p4636
aVsignal
p4637
aVsignaled
p4638
aVsignificant
p4639
aVsignificantly
p4640
aVsigning
p4641
aVsigns
p4642
aVsilence
p4643
aVsimilar
p4644
aVsimple
p4645
aVsimply
p4646
aVsimultaneously
p4647
aVsince
p4648
aVsinger
p4649
aVsingle
p4650
aVsister
p4651
aVsit
p4652
aVsite
p4653
aVsites
p4654
aVsitting
p4655
aVsix
p4656
aVsixty
p4657
aVsize
p4658
aVskidded
p4659
aVskills
p4660
aVskim
p4661
aVskin
p4662
aVskirmished
p4663
aVskirting
p4664
aVskittish
p4665
aVskyline
p4666
aVslaps
p4667
aVslated
p4668
aVsleep
p4669
aVslice
p4670
aVslickly
p4671
aVslide
p4672
aVslight
p4673
aVslightly
p4674
aVslim
p4675
aVslingers
p4676
aVslot
p4677
aVslow
p4678
aVslowdown
p4679
aVslowing
p4680
aVslump
p4681
aVslumping
p4682
aVsmall
p4683
aVsmaller
p4684
aVsmallpox
p4685
aVsmart
p4686
aVsmokescreens
p4687
aVsnapping
p4688
aVso
p4689
aVsoared
p4690
aVsocial
p4691
aVsocialism
p4692
aVsocialist
p4693
aVsocieties
p4694
aVsociety
p4695
aVsociology
p4696
aVsocked
p4697
aVsoften
p4698
aVsold
p4699
aVsolely
p4700
aVsoliciting
p4701
aVsolution
p4702
aVsome
p4703
aVsomething
p4704
aVsomewhat
p4705
aVsoon
p4706
aVsooner
p4707
aVsophisticated
p4708
aVsops
p4709
aVsounding
p4710
aVsource
p4711
aVsources
p4712
aVsourcing
p4713
aVsouthern
p4714
aVspace
p4715
aVspark
p4716
aVspeaking
p4717
aVspecial
p4718
aVspecialists
p4719
aVspecialty
p4720
aVspecies
p4721
aVspecific
p4722
aVspecified
p4723
aVspecify
p4724
aVspeculation
p4725
aVspeculative
p4726
aVspeech
p4727
aVspeed
p4728
aVspend
p4729
aVspending
p4730
aVspent
p4731
aVspies
p4732
aVspirit
p4733
aVsplit
p4734
aVspoil
p4735
aVspoke
p4736
aVspokesman
p4737
aVsponsored
p4738
aVsponsoring
p4739
aVspooked
p4740
aVsport
p4741
aVsporting
p4742
aVspot
p4743
aVspread
p4744
aVspring
p4745
aVspun
p4746
aVspurt
p4747
aVsquabbles
p4748
aVsqueeze
p4749
aVstability
p4750
aVstabilizing
p4751
aVstaff
p4752
aVstaffed
p4753
aVstage
p4754
aVstaggering
p4755
aVstagnant
p4756
aVstake
p4757
aVstakes
p4758
aVstalling
p4759
aVstand
p4760
aVstandard
p4761
aVstandards
p4762
aVstandby
p4763
aVstanding
p4764
aVstandstill
p4765
aVstark
p4766
aVstart
p4767
aVstarted
p4768
aVstarting
p4769
aVstarts
p4770
aVstarving
p4771
aVstate
p4772
aVstatement
p4773
aVstatements
p4774
aVstates
p4775
aVstation
p4776
aVstations
p4777
aVstatist
p4778
aVstatue
p4779
aVstatus
p4780
aVstay
p4781
aVstays
p4782
aVsteady
p4783
aVsteals
p4784
aVsteam
p4785
aVsteel
p4786
aVsteep
p4787
aVsteeper
p4788
aVsteering
p4789
aVstench
p4790
aVstep
p4791
aVsteps
p4792
aVstern
p4793
aVsticky
p4794
aVstiff
p4795
aVstill
p4796
aVstipends
p4797
aVstock
p4798
aVstockholder
p4799
aVstocks
p4800
aVstoke
p4801
aVstolen
p4802
aVstop
p4803
aVstopped
p4804
aVstopping
p4805
aVstore
p4806
aVstores
p4807
aVstories
p4808
aVstory
p4809
aVstove
p4810
aVstrain
p4811
aVstrains
p4812
aVstrapped
p4813
aVstrategic
p4814
aVstrategies
p4815
aVstrategy
p4816
aVstreet
p4817
aVstreets
p4818
aVstrength
p4819
aVstrengthen
p4820
aVstress
p4821
aVstrictly
p4822
aVstrike
p4823
aVstriking
p4824
aVstrip
p4825
aVstripe
p4826
aVstripes
p4827
aVstripped
p4828
aVstripping
p4829
aVstrong
p4830
aVstrongly
p4831
aVstruck
p4832
aVstructure
p4833
aVstructured
p4834
aVstructures
p4835
aVstruggle
p4836
aVstubbornly
p4837
aVstuck
p4838
aVstudent
p4839
aVstudents
p4840
aVstudied
p4841
aVstudies
p4842
aVstudio
p4843
aVstudios
p4844
aVstudy
p4845
aVstuff
p4846
aVstumbling
p4847
aVstunning
p4848
aVstupid
p4849
aVstyle
p4850
aVstyled
p4851
aVsubcommittee
p4852
aVsubject
p4853
aVsubscribers
p4854
aVsubsequent
p4855
aVsubsidiary
p4856
aVsubsidies
p4857
aVsubstantially
p4858
aVsubstantive
p4859
aVsubstitute
p4860
aVsubway
p4861
aVsucceeded
p4862
aVsucceeding
p4863
aVsucceeds
p4864
aVsuccess
p4865
aVsuccesses
p4866
aVsuccessful
p4867
aVsuccession
p4868
aVsuccessor
p4869
aVsuch
p4870
aVsuddenly
p4871
aVsued
p4872
aVsuffer
p4873
aVsuffered
p4874
aVsuffering
p4875
aVsuggest
p4876
aVsuggested
p4877
aVsuggesting
p4878
aVsuit
p4879
aVsuitor
p4880
aVsummer
p4881
aVsums
p4882
aVsun
p4883
aVsuper-regulator
p4884
aVsupersonic
p4885
aVsupervision
p4886
aVsupplier
p4887
aVsupply
p4888
aVsupport
p4889
aVsupporting
p4890
aVsupposedly
p4891
aVsure
p4892
aVsurely
p4893
aVsurge
p4894
aVsurged
p4895
aVsurges
p4896
aVsurgical
p4897
aVsurprise
p4898
aVsurprised
p4899
aVsurrounded
p4900
aVsurvey
p4901
aVsurvive
p4902
aVsurvives
p4903
aVsuspect
p4904
aVsuspended
p4905
aVsuspending
p4906
aVsuspension
p4907
aVsustained
p4908
aVswallow
p4909
aVsweeping
p4910
aVswitch
p4911
aVsymbol
p4912
aVsyn
p4913
aVsyndicate
p4914
aVsyndication
p4915
aVsynthesizer
p4916
aVsystem
p4917
aVsystems
p4918
aVtables
p4919
aVtactics
p4920
aVtailed
p4921
aVtake
p4922
aVtaken
p4923
aVtakeover
p4924
aVtakeovers
p4925
aVtakes
p4926
aVtaking
p4927
aVtalk
p4928
aVtalked
p4929
aVtalking
p4930
aVtalks
p4931
aVtall
p4932
aVtame
p4933
aVtandem
p4934
aVtantalizingly
p4935
aVtape
p4936
aVtardy
p4937
aVtarget
p4938
aVtargeted
p4939
aVtargets
p4940
aVtask
p4941
aVtasks
p4942
aVtax
p4943
aVtaxes
p4944
aVtaxpayers
p4945
aVteach
p4946
aVteam
p4947
aVtechnical
p4948
aVtechnology
p4949
aVteddy
p4950
aVtelephone
p4951
aVtelephones
p4952
aVtelevision
p4953
aVtemperature
p4954
aVtemporary
p4955
aVtend
p4956
aVtends
p4957
aVtenets
p4958
aVtentative
p4959
aVtenure
p4960
aVterm
p4961
aVtermed
p4962
aVterminal
p4963
aVterminated
p4964
aVterms
p4965
aVterrible
p4966
aVterritory
p4967
aVterrorism
p4968
aVterrorist
p4969
aVtest
p4970
aVtested
p4971
aVtestimony
p4972
aVthan
p4973
aVthankfully
p4974
aVthat
p4975
aVthe
p4976
aVtheft
p4977
aVtheir
p4978
aVthem
p4979
aVthemselves
p4980
aVthen
p4981
aVtheory
p4982
aVthere
p4983
aVtherefore
p4984
aVthese
p4985
aVthey
p4986
aVthing
p4987
aVthings
p4988
aVthink
p4989
aVthinking
p4990
aVthinks
p4991
aVthird
p4992
aVthis
p4993
aVthose
p4994
aVthough
p4995
aVthought
p4996
aVthousand
p4997
aVthousands
p4998
aVthrash
p4999
aVthreat
p5000
aVthreatened
p5001
aVthreatening
p5002
aVthreats
p5003
aVthree
p5004
aVthrift
p5005
aVthrifts
p5006
aVthrough
p5007
aVthroughout
p5008
aVthrow
p5009
aVthrowing
p5010
aVthwarted
p5011
aVthwarting
p5012
aVticker
p5013
aVticking
p5014
aVtidbits
p5015
aVtide
p5016
aVtighten
p5017
aVtightening
p5018
aVtime
p5019
aVtimes
p5020
aVtiny
p5021
aVtitle
p5022
aVto
p5023
aVtobacco
p5024
aVtoday
p5025
aVtogether
p5026
aVtold
p5027
aVtolerance
p5028
aVtomorrow
p5029
aVtone
p5030
aVtongues
p5031
aVtoo
p5032
aVtook
p5033
aVtooted
p5034
aVtop
p5035
aVtorpedoed
p5036
aVtotal
p5037
aVtotaling
p5038
aVtough
p5039
aVtougher
p5040
aVtoughest
p5041
aVtouted
p5042
aVtowns
p5043
aVtownships
p5044
aVtoy
p5045
aVtoys
p5046
aVtraces
p5047
aVtracks
p5048
aVtrade
p5049
aVtraded
p5050
aVtrademark
p5051
aVtrader
p5052
aVtraders
p5053
aVtrades
p5054
aVtrading
p5055
aVtradition
p5056
aVtraditional
p5057
aVtrail
p5058
aVtrain
p5059
aVtrainer
p5060
aVtrainers
p5061
aVtraining
p5062
aVtraipse
p5063
aVtransaction
p5064
aVtransactions
p5065
aVtransformed
p5066
aVtranslator
p5067
aVtransmogrified
p5068
aVtransportation
p5069
aVtreasury
p5070
aVtreatment
p5071
aVtrees
p5072
aVtrend
p5073
aVtrends
p5074
aVtrial
p5075
aVtrickery
p5076
aVtried
p5077
aVtries
p5078
aVtrigger
p5079
aVtriggered
p5080
aVtrips
p5081
aVtrivial
p5082
aVtrouble
p5083
aVtroubled
p5084
aVtroubles
p5085
aVtroublesome
p5086
aVtrough
p5087
aVtruck
p5088
aVtrucks
p5089
aVtrue
p5090
aVtrust
p5091
aVtry
p5092
aVtrying
p5093
aVtumbled
p5094
aVtune
p5095
aVturmoil
p5096
aVturn
p5097
aVturnaround
p5098
aVturned
p5099
aVturning
p5100
aVturtles
p5101
aVtutored
p5102
aVtutoring
p5103
aVtwice
p5104
aVtwo
p5105
aVtype
p5106
aVunable
p5107
aVunadited
p5108
aVunanswered
p5109
aVunavailable
p5110
aVunbanning
p5111
aVuncertain
p5112
aVuncertainty
p5113
aVunchanged
p5114
aVuncharted
p5115
aVunconditional
p5116
aVunconstitutional
p5117
aVunder
p5118
aVundercurrent
p5119
aVundercut
p5120
aVunderestimated
p5121
aVunderpriced
p5122
aVunderscores
p5123
aVunderselling
p5124
aVundersold
p5125
aVunderstand
p5126
aVunderstood
p5127
aVundervalued
p5128
aVunderwriter
p5129
aVunderwriting
p5130
aVundoubtedly
p5131
aVundue
p5132
aVunenforceable
p5133
aVunfair
p5134
aVunfolded
p5135
aVunfriendly
p5136
aVuniform
p5137
aVunify
p5138
aVunifying
p5139
aVuninhibited
p5140
aVunion
p5141
aVunionist
p5142
aVunit
p5143
aVunits
p5144
aVunlike
p5145
aVunlikely
p5146
aVunloaded
p5147
aVunmet
p5148
aVunpaid
p5149
aVunprecedented
p5150
aVunprecedentedly
p5151
aVunrealistic
p5152
aVunreasonable
p5153
aVunregulated
p5154
aVunrest
p5155
aVunrestrained
p5156
aVunshackled
p5157
aVunskilled
p5158
aVunsolicited
p5159
aVunspecified
p5160
aVunsubsidized
p5161
aVunsure
p5162
aVuntil
p5163
aVunusual
p5164
aVunusually
p5165
aVunwholesome
p5166
aVunwillingness
p5167
aVunwise
p5168
aVunwittingly
p5169
aVup
p5170
aVupgrading
p5171
aVupheld
p5172
aVupon
p5173
aVupstart
p5174
aVupward
p5175
aVuranium
p5176
aVurged
p5177
aVurging
p5178
aVus
p5179
aVuse
p5180
aVused
p5181
aVuseful
p5182
aVuser
p5183
aVuses
p5184
aVusing
p5185
aVusual
p5186
aVutilities
p5187
aVutility
p5188
aVutilization
p5189
aVutopian
p5190
aVvacancy
p5191
aVvacant
p5192
aVvacation
p5193
aVvague
p5194
aVvalue
p5195
aVvalued
p5196
aVvalues
p5197
aVvan
p5198
aVvanished
p5199
aVvans
p5200
aVvantage
p5201
aVvariety
p5202
aVvarious
p5203
aVvehicle
p5204
aVvehicles
p5205
aVvengeance
p5206
aVventure
p5207
aVventures
p5208
aVverbal
p5209
aVversion
p5210
aVvertical
p5211
aVvery
p5212
aVveteran
p5213
aVvetoed
p5214
aVviable
p5215
aVvice
p5216
aVvictory
p5217
aVvideo
p5218
aVview
p5219
aVviewers
p5220
aVviews
p5221
aVvigorously
p5222
aVviolating
p5223
aVviolations
p5224
aVviolence
p5225
aVvirus
p5226
aVvisited
p5227
aVvisitor
p5228
aVvociferous
p5229
aVvoice
p5230
aVvolatile
p5231
aVvolley
p5232
aVvolume
p5233
aVvolumes
p5234
aVvoluntarily
p5235
aVvoluntary
p5236
aVvolunteer
p5237
aVvolunteered
p5238
aVvolunteering
p5239
aVvolunteerism
p5240
aVvolunteers
p5241
aVvote
p5242
aVvoted
p5243
aVvoter
p5244
aVvoters
p5245
aVvotes
p5246
aVvoting
p5247
aVvoucher
p5248
aVvowed
p5249
aVvows
p5250
aVvs.
p5251
aVwage
p5252
aVwages
p5253
aVwait
p5254
aVwaiting
p5255
aVwake
p5256
aVwant
p5257
aVwanted
p5258
aVwants
p5259
aVwar
p5260
aVwarned
p5261
aVwarriors
p5262
aVwary
p5263
aVwas
p5264
aVwash
p5265
aVwastrel
p5266
aVwatched
p5267
aVwatching
p5268
aVwaxed
p5269
aVway
p5270
aVways
p5271
aVwe
p5272
aVweak
p5273
aVweakened
p5274
aVweakness
p5275
aVwealth
p5276
aVwears
p5277
aVweek
p5278
aVweekend
p5279
aVweekly
p5280
aVweeks
p5281
aVweight
p5282
aVwelcome
p5283
aVwell
p5284
aVwent
p5285
aVwere
p5286
aVwest
p5287
aVwhat
p5288
aVwhatsoever
p5289
aVwhen
p5290
aVwhere
p5291
aVwhether
p5292
aVwhich
p5293
aVwhile
p5294
aVwhite
p5295
aVwhites
p5296
aVwhittled
p5297
aVwho
p5298
aVwhole
p5299
aVwholesale
p5300
aVwhom
p5301
aVwhose
p5302
aVwhy
p5303
aVwide
p5304
aVwidely
p5305
aVwiden
p5306
aVwidened
p5307
aVwidening
p5308
aVwield
p5309
aVwild
p5310
aVwildlife
p5311
aVwill
p5312
aVwimp
p5313
aVwin
p5314
aVwing
p5315
aVwings
p5316
aVwins
p5317
aVwinter
p5318
aVwiretaps
p5319
aVwisdom
p5320
aVwiser
p5321
aVwishers
p5322
aVwitch
p5323
aVwith
p5324
aVwithdraw
p5325
aVwithdrawal
p5326
aVwithdrawing
p5327
aVwithdrew
p5328
aVwithholding
p5329
aVwithout
p5330
aVwitnessed
p5331
aVwo
p5332
aVwomen
p5333
aVwonder
p5334
aVword
p5335
aVwords
p5336
aVwork
p5337
aVworked
p5338
aVworkers
p5339
aVworking
p5340
aVworks
p5341
aVworld
p5342
aVworried
p5343
aVworry
p5344
aVworrying
p5345
aVworsening
p5346
aVworst
p5347
aVworth
p5348
aVworthless
p5349
aVworthwhile
p5350
aVworthy
p5351
aVwould
p5352
aVwound
p5353
aVwrapped
p5354
aVwrathful
p5355
aVwrenching
p5356
aVwrit
p5357
aVwrite
p5358
aVwriteoffs
p5359
aVwriter
p5360
aVwritten
p5361
aVwrong
p5362
aVwrote
p5363
aVx
p5364
aVyear
p5365
aVyears
p5366
aVyellow
p5367
aVyen
p5368
aVyesterday
p5369
aVyet
p5370
aVyield
p5371
aVyields
p5372
aVyou
p5373
aVyoung
p5374
aVyounger
p5375
aVyouth
p5376
aVyouths
p5377
aVyuan
p5378
aVyuppie
p5379
aVyuppies
p5380
aVz
p5381
aVzealous
p5382
aV{
p5383
aV}
p5384
a(lp5385
V$
p5386
aV''
p5387
aV,
p5388
aV-LRB-
p5389
aV-RRB-
p5390
aV.
p5391
aV:
p5392
aVCC
p5393
aVCD
p5394
aVDT
p5395
aVEX
p5396
aVFW
p5397
aVHYPH
p5398
aVIN
p5399
aVJJ
p5400
aVJJR
p5401
aVJJS
p5402
aVLS
p5403
aVMD
p5404
aVNN
p5405
aVNNP
p5406
aVNNPS
p5407
aVNNS
p5408
aVPDT
p5409
aVPOS
p5410
aVPRP
p5411
aVPRP$
p5412
aVRB
p5413
aVRBR
p5414
aVRBS
p5415
aVRP
p5416
aVSYM
p5417
aVTO
p5418
aVUH
p5419
aVVB
p5420
aVVBD
p5421
aVVBG
p5422
aVVBN
p5423
aVVBP
p5424
aVVBZ
p5425
aVWDT
p5426
aVWP
p5427
aVWP$
p5428
aVWRB
p5429
aV``
p5430
a(lp5431
S'able'
p5432
aS'al'
p5433
aS'ed'
p5434
aS'ing'
p5435
aS'er'
p5436
aS'est'
p5437
aS'ion'
p5438
aS'ive'
p5439
aS'less'
p5440
aS'ly'
p5441
aS'ness'
p5442
aS'ous'
p5443
aS'.'
p5444
atp5445
.